EXPORTS 
	?$TSS0@?1??TryInit@ProgramCompilerGroup@Gfx@Component@LoFi@@SAPEAU1234@XZ@4HA 	 DATA
	?$TSS0@?1??_GetStaticAmbientSchedulerStorage@details@Concurrency@@YAPEAV?$shared_ptr@Uscheduler_interface@Concurrency@@@std@@XZ@4HA 	 DATA
	?$TSS0@?1??get@TFProfManager@tf@@SAAEAV12@XZ@4HA 	 DATA
	?$TSS0@?1??mutex@ThreadExitNotifier@details@moodycamel@@CAAEAV0std@@XZ@4HA 	 DATA
	?$TSS0@?1??value@?$type_index@UTagDataChanged@Gfx@Component@LoFi@@X@entt@@SAIXZ@4HA 	 DATA
	?$TSS0@?1??value@?$type_index@UTagDataUpdateCompleted@Gfx@Component@LoFi@@X@entt@@SAIXZ@4HA 	 DATA
	?$TSS0@?1??value@?$type_index@V?$basic_registry@W4entity@entt@@V?$allocator@W4entity@entt@@@std@@@entt@@X@entt@@SAIXZ@4HA 	 DATA
	?$TSS0@?1??value@?$type_index@VBuffer3F@Gfx@Component@LoFi@@X@entt@@SAIXZ@4HA 	 DATA
	?$TSS0@?1??value@?$type_index@VBuffer@Gfx@Component@LoFi@@X@entt@@SAIXZ@4HA 	 DATA
	?$TSS0@?1??value@?$type_index@VKernel@Gfx@Component@LoFi@@X@entt@@SAIXZ@4HA 	 DATA
	?$TSS0@?1??value@?$type_index@VProgram@Gfx@Component@LoFi@@X@entt@@SAIXZ@4HA 	 DATA
	?$TSS0@?1??value@?$type_index@VSwapchain@Gfx@Component@LoFi@@X@entt@@SAIXZ@4HA 	 DATA
	?$TSS0@?1??value@?$type_index@VTexture@Gfx@Component@LoFi@@X@entt@@SAIXZ@4HA 	 DATA
	?$TSS0@?1??value@?$type_index@VWindow@Gfx@Component@LoFi@@X@entt@@SAIXZ@4HA 	 DATA
	?$TSS0@?1??value@?$type_index@XX@entt@@SAIXZ@4HA 	 DATA
	?$TSS0@?4???$type_id@UTagDataChanged@Gfx@Component@LoFi@@@entt@@YAAEBUtype_info@0@XZ@4HA 	 DATA
	?$TSS0@?4???$type_id@UTagDataUpdateCompleted@Gfx@Component@LoFi@@@entt@@YAAEBUtype_info@0@XZ@4HA 	 DATA
	?$TSS0@?4???$type_id@V?$basic_registry@W4entity@entt@@V?$allocator@W4entity@entt@@@std@@@entt@@@entt@@YAAEBUtype_info@0@XZ@4HA 	 DATA
	?$TSS0@?4???$type_id@VBuffer3F@Gfx@Component@LoFi@@@entt@@YAAEBUtype_info@0@XZ@4HA 	 DATA
	?$TSS0@?4???$type_id@VBuffer@Gfx@Component@LoFi@@@entt@@YAAEBUtype_info@0@XZ@4HA 	 DATA
	?$TSS0@?4???$type_id@VKernel@Gfx@Component@LoFi@@@entt@@YAAEBUtype_info@0@XZ@4HA 	 DATA
	?$TSS0@?4???$type_id@VProgram@Gfx@Component@LoFi@@@entt@@YAAEBUtype_info@0@XZ@4HA 	 DATA
	?$TSS0@?4???$type_id@VSwapchain@Gfx@Component@LoFi@@@entt@@YAAEBUtype_info@0@XZ@4HA 	 DATA
	?$TSS0@?4???$type_id@VTexture@Gfx@Component@LoFi@@@entt@@YAAEBUtype_info@0@XZ@4HA 	 DATA
	?$TSS0@?4???$type_id@VWindow@Gfx@Component@LoFi@@@entt@@YAAEBUtype_info@0@XZ@4HA 	 DATA
	?$TSS0@?4???$type_id@X@entt@@YAAEBUtype_info@0@XZ@4HA 	 DATA
	??_R0?AU?$_Task_impl@E@details@Concurrency@@@8 	 DATA
	??_R0?AUConcurrentQueueProducerTypelessBase@details@moodycamel@@@8 	 DATA
	??_R0?AUExplicitProducer@?$ConcurrentQueue@UContextResourceRecoveryInfo@Internal@LoFi@@UConcurrentQueueDefaultTraits@moodycamel@@@moodycamel@@@8 	 DATA
	??_R0?AUImplicitProducer@?$ConcurrentQueue@UContextResourceRecoveryInfo@Internal@LoFi@@UConcurrentQueueDefaultTraits@moodycamel@@@moodycamel@@@8 	 DATA
	??_R0?AUProducerBase@?$ConcurrentQueue@UContextResourceRecoveryInfo@Internal@LoFi@@UConcurrentQueueDefaultTraits@moodycamel@@@moodycamel@@@8 	 DATA
	??_R0?AU_Crt_new_delete@std@@@8 	 DATA
	??_R0?AU_Fmt_buffer_traits@std@@@8 	 DATA
	??_R0?AU_TaskProcHandle@details@Concurrency@@@8 	 DATA
	??_R0?AU_Task_impl_base@details@Concurrency@@@8 	 DATA
	??_R0?AUscheduler_interface@Concurrency@@@8 	 DATA
	??_R0?AV<lambda_1>@?0???R0?0??_ScheduleContinuationTask@_Task_impl_base@details@Concurrency@@QEAAXPEAU_ContinuationTaskHandleBase@34@@Z@QEBA?A?<auto>@@XZ@@8 	 DATA
	??_R0?AV<lambda_1>@?0??_CancelAndRunContinuations@?$_Task_impl@E@details@Concurrency@@UEAA_N_N00AEBV?$shared_ptr@U_ExceptionHolder@details@Concurrency@@@std@@@Z@@8 	 DATA
	??_R0?AV<lambda_1>@?0??_MakeVoidToUnitFunc@details@Concurrency@@YA?AV?$function@$$A6AEXZ@std@@AEBV?$function@$$A6AXXZ@5@@Z@@8 	 DATA
	??_R0?AV<lambda_1>@?0??_ScheduleContinuationTask@_Task_impl_base@details@Concurrency@@QEAAXPEAU_ContinuationTaskHandleBase@34@@Z@@8 	 DATA
	??_R0?AV<lambda_1>@?0??generate@?$ImmediateAtlasGenerator@M$03$1?mtsdfGenerator@msdf_atlas@@YAXAEBU?$BitmapRef@M$03@msdfgen@@AEBVGlyphGeometry@2@AEBUGeneratorAttributes@2@@ZV?$BitmapAtlasStorage@E$03@2@@msdf_atlas@@QEAAXPEBVGlyphGeometry@3@H@Z@@8 	 DATA
	??_R0?AV?$_Associated_state@H@std@@@8 	 DATA
	??_R0?AV?$_CancellationTokenCallback@V<lambda_1>@?0??_RegisterCancellation@_Task_impl_base@details@Concurrency@@QEAAXV?$weak_ptr@U_Task_impl_base@details@Concurrency@@@std@@@Z@@details@Concurrency@@@8 	 DATA
	??_R0?AV?$_Deferred_async_state@X@std@@@8 	 DATA
	??_R0?AV?$_Ebco_base@V?$allocator@V?$basic_sigh_mixin@V?$basic_storage@UTagDataChanged@Gfx@Component@LoFi@@W4entity@entt@@V?$allocator@UTagDataChanged@Gfx@Component@LoFi@@@std@@X@entt@@V?$basic_registry@W4entity@entt@@V?$allocator@W4entity@entt@@@std@@@2@@entt@@@std@@$00@std@@@8 	 DATA
	??_R0?AV?$_Ebco_base@V?$allocator@V?$basic_sigh_mixin@V?$basic_storage@UTagDataUpdateCompleted@Gfx@Component@LoFi@@W4entity@entt@@V?$allocator@UTagDataUpdateCompleted@Gfx@Component@LoFi@@@std@@X@entt@@V?$basic_registry@W4entity@entt@@V?$allocator@W4entity@entt@@@std@@@2@@entt@@@std@@$00@std@@@8 	 DATA
	??_R0?AV?$_Ebco_base@V?$allocator@V?$basic_sigh_mixin@V?$basic_storage@VBuffer3F@Gfx@Component@LoFi@@W4entity@entt@@V?$allocator@VBuffer3F@Gfx@Component@LoFi@@@std@@X@entt@@V?$basic_registry@W4entity@entt@@V?$allocator@W4entity@entt@@@std@@@2@@entt@@@std@@$00@std@@@8 	 DATA
	??_R0?AV?$_Ebco_base@V?$allocator@V?$basic_sigh_mixin@V?$basic_storage@VBuffer@Gfx@Component@LoFi@@W4entity@entt@@V?$allocator@VBuffer@Gfx@Component@LoFi@@@std@@X@entt@@V?$basic_registry@W4entity@entt@@V?$allocator@W4entity@entt@@@std@@@2@@entt@@@std@@$00@std@@@8 	 DATA
	??_R0?AV?$_Ebco_base@V?$allocator@V?$basic_sigh_mixin@V?$basic_storage@VKernel@Gfx@Component@LoFi@@W4entity@entt@@V?$allocator@VKernel@Gfx@Component@LoFi@@@std@@X@entt@@V?$basic_registry@W4entity@entt@@V?$allocator@W4entity@entt@@@std@@@2@@entt@@@std@@$00@std@@@8 	 DATA
	??_R0?AV?$_Ebco_base@V?$allocator@V?$basic_sigh_mixin@V?$basic_storage@VProgram@Gfx@Component@LoFi@@W4entity@entt@@V?$allocator@VProgram@Gfx@Component@LoFi@@@std@@X@entt@@V?$basic_registry@W4entity@entt@@V?$allocator@W4entity@entt@@@std@@@2@@entt@@@std@@$00@std@@@8 	 DATA
	??_R0?AV?$_Ebco_base@V?$allocator@V?$basic_sigh_mixin@V?$basic_storage@VSwapchain@Gfx@Component@LoFi@@W4entity@entt@@V?$allocator@VSwapchain@Gfx@Component@LoFi@@@std@@X@entt@@V?$basic_registry@W4entity@entt@@V?$allocator@W4entity@entt@@@std@@@2@@entt@@@std@@$00@std@@@8 	 DATA
	??_R0?AV?$_Ebco_base@V?$allocator@V?$basic_sigh_mixin@V?$basic_storage@VTexture@Gfx@Component@LoFi@@W4entity@entt@@V?$allocator@VTexture@Gfx@Component@LoFi@@@std@@X@entt@@V?$basic_registry@W4entity@entt@@V?$allocator@W4entity@entt@@@std@@@2@@entt@@@std@@$00@std@@@8 	 DATA
	??_R0?AV?$_Ebco_base@V?$allocator@V?$basic_sigh_mixin@V?$basic_storage@VWindow@Gfx@Component@LoFi@@W4entity@entt@@V?$allocator@VWindow@Gfx@Component@LoFi@@@std@@X@entt@@V?$basic_registry@W4entity@entt@@V?$allocator@W4entity@entt@@@std@@@2@@entt@@@std@@$00@std@@@8 	 DATA
	??_R0?AV?$_Fmt_buffer@D@std@@@8 	 DATA
	??_R0?AV?$_Fmt_iterator_buffer@V?$back_insert_iterator@V?$basic_string@DU?$char_traits@D@std@@V?$allocator@D@2@@std@@@std@@DU_Fmt_buffer_traits@2@@std@@@8 	 DATA
	??_R0?AV?$_Func_base@E$$V@std@@@8 	 DATA
	??_R0?AV?$_Func_base@X$$V@std@@@8 	 DATA
	??_R0?AV?$_Func_base@XPEAUVkCommandBuffer_T@@@std@@@8 	 DATA
	??_R0?AV?$_Func_base@_NHH@std@@@8 	 DATA
	??_R0?AV?$_Func_impl_no_alloc@V<lambda_1>@?0???R1?0??_ScheduleContinuationTask@_Task_impl_base@details@Concurrency@@QEAAXPEAU_ContinuationTaskHandleBase@45@@Z@QEBA?A?<auto>@@XZ@X$$V@std@@@8 	 DATA
	??_R0?AV?$_Func_impl_no_alloc@V<lambda_1>@?0??_CancelAndRunContinuations@?$_Task_impl@E@details@Concurrency@@UEAA_N_N00AEBV?$shared_ptr@U_ExceptionHolder@details@Concurrency@@@std@@@Z@X$$V@std@@@8 	 DATA
	??_R0?AV?$_Func_impl_no_alloc@V<lambda_1>@?0??_MakeVoidToUnitFunc@details@Concurrency@@YA?AV?$function@$$A6AEXZ@std@@AEBV?$function@$$A6AXXZ@6@@Z@E$$V@std@@@8 	 DATA
	??_R0?AV?$_Func_impl_no_alloc@V<lambda_1>@?0??_ScheduleContinuationTask@_Task_impl_base@details@Concurrency@@QEAAXPEAU_ContinuationTaskHandleBase@45@@Z@X$$V@std@@@8 	 DATA
	??_R0?AV?$_Func_impl_no_alloc@V<lambda_1>@?0??generate@?$ImmediateAtlasGenerator@M$03$1?mtsdfGenerator@msdf_atlas@@YAXAEBU?$BitmapRef@M$03@msdfgen@@AEBVGlyphGeometry@2@AEBUGeneratorAttributes@2@@ZV?$BitmapAtlasStorage@E$03@2@@msdf_atlas@@QEAAXPEBVGlyphGeometry@4@H@Z@_NHH@std@@@8 	 DATA
	??_R0?AV?$_Iosb@H@std@@@8 	 DATA
	??_R0?AV?$_Packaged_state@$$A6AXXZ@std@@@8 	 DATA
	??_R0?AV?$_Ref_count_obj2@U?$_Task_impl@E@details@Concurrency@@@std@@@8 	 DATA
	??_R0?AV?$_Ref_count_obj2@U_ExceptionHolder@details@Concurrency@@@std@@@8 	 DATA
	??_R0?AV?$_Ref_count_obj2@VTFProfObserver@tf@@@std@@@8 	 DATA
	??_R0?AV?$_Ref_count_obj_alloc3@V?$basic_sigh_mixin@V?$basic_storage@UTagDataChanged@Gfx@Component@LoFi@@W4entity@entt@@V?$allocator@UTagDataChanged@Gfx@Component@LoFi@@@std@@X@entt@@V?$basic_registry@W4entity@entt@@V?$allocator@W4entity@entt@@@std@@@2@@entt@@V?$allocator@W4entity@entt@@@std@@@std@@@8 	 DATA
	??_R0?AV?$_Ref_count_obj_alloc3@V?$basic_sigh_mixin@V?$basic_storage@UTagDataUpdateCompleted@Gfx@Component@LoFi@@W4entity@entt@@V?$allocator@UTagDataUpdateCompleted@Gfx@Component@LoFi@@@std@@X@entt@@V?$basic_registry@W4entity@entt@@V?$allocator@W4entity@entt@@@std@@@2@@entt@@V?$allocator@W4entity@entt@@@std@@@std@@@8 	 DATA
	??_R0?AV?$_Ref_count_obj_alloc3@V?$basic_sigh_mixin@V?$basic_storage@VBuffer3F@Gfx@Component@LoFi@@W4entity@entt@@V?$allocator@VBuffer3F@Gfx@Component@LoFi@@@std@@X@entt@@V?$basic_registry@W4entity@entt@@V?$allocator@W4entity@entt@@@std@@@2@@entt@@V?$allocator@W4entity@entt@@@std@@@std@@@8 	 DATA
	??_R0?AV?$_Ref_count_obj_alloc3@V?$basic_sigh_mixin@V?$basic_storage@VBuffer@Gfx@Component@LoFi@@W4entity@entt@@V?$allocator@VBuffer@Gfx@Component@LoFi@@@std@@X@entt@@V?$basic_registry@W4entity@entt@@V?$allocator@W4entity@entt@@@std@@@2@@entt@@V?$allocator@W4entity@entt@@@std@@@std@@@8 	 DATA
	??_R0?AV?$_Ref_count_obj_alloc3@V?$basic_sigh_mixin@V?$basic_storage@VKernel@Gfx@Component@LoFi@@W4entity@entt@@V?$allocator@VKernel@Gfx@Component@LoFi@@@std@@X@entt@@V?$basic_registry@W4entity@entt@@V?$allocator@W4entity@entt@@@std@@@2@@entt@@V?$allocator@W4entity@entt@@@std@@@std@@@8 	 DATA
	??_R0?AV?$_Ref_count_obj_alloc3@V?$basic_sigh_mixin@V?$basic_storage@VProgram@Gfx@Component@LoFi@@W4entity@entt@@V?$allocator@VProgram@Gfx@Component@LoFi@@@std@@X@entt@@V?$basic_registry@W4entity@entt@@V?$allocator@W4entity@entt@@@std@@@2@@entt@@V?$allocator@W4entity@entt@@@std@@@std@@@8 	 DATA
	??_R0?AV?$_Ref_count_obj_alloc3@V?$basic_sigh_mixin@V?$basic_storage@VSwapchain@Gfx@Component@LoFi@@W4entity@entt@@V?$allocator@VSwapchain@Gfx@Component@LoFi@@@std@@X@entt@@V?$basic_registry@W4entity@entt@@V?$allocator@W4entity@entt@@@std@@@2@@entt@@V?$allocator@W4entity@entt@@@std@@@std@@@8 	 DATA
	??_R0?AV?$_Ref_count_obj_alloc3@V?$basic_sigh_mixin@V?$basic_storage@VTexture@Gfx@Component@LoFi@@W4entity@entt@@V?$allocator@VTexture@Gfx@Component@LoFi@@@std@@X@entt@@V?$basic_registry@W4entity@entt@@V?$allocator@W4entity@entt@@@std@@@2@@entt@@V?$allocator@W4entity@entt@@@std@@@std@@@8 	 DATA
	??_R0?AV?$_Ref_count_obj_alloc3@V?$basic_sigh_mixin@V?$basic_storage@VWindow@Gfx@Component@LoFi@@W4entity@entt@@V?$allocator@VWindow@Gfx@Component@LoFi@@@std@@X@entt@@V?$basic_registry@W4entity@entt@@V?$allocator@W4entity@entt@@@std@@@2@@entt@@V?$allocator@W4entity@entt@@@std@@@std@@@8 	 DATA
	??_R0?AV?$_Task_async_state@X@std@@@8 	 DATA
	??_R0?AV?$allocator@V?$basic_sigh_mixin@V?$basic_storage@UTagDataChanged@Gfx@Component@LoFi@@W4entity@entt@@V?$allocator@UTagDataChanged@Gfx@Component@LoFi@@@std@@X@entt@@V?$basic_registry@W4entity@entt@@V?$allocator@W4entity@entt@@@std@@@2@@entt@@@std@@@8 	 DATA
	??_R0?AV?$allocator@V?$basic_sigh_mixin@V?$basic_storage@UTagDataUpdateCompleted@Gfx@Component@LoFi@@W4entity@entt@@V?$allocator@UTagDataUpdateCompleted@Gfx@Component@LoFi@@@std@@X@entt@@V?$basic_registry@W4entity@entt@@V?$allocator@W4entity@entt@@@std@@@2@@entt@@@std@@@8 	 DATA
	??_R0?AV?$allocator@V?$basic_sigh_mixin@V?$basic_storage@VBuffer3F@Gfx@Component@LoFi@@W4entity@entt@@V?$allocator@VBuffer3F@Gfx@Component@LoFi@@@std@@X@entt@@V?$basic_registry@W4entity@entt@@V?$allocator@W4entity@entt@@@std@@@2@@entt@@@std@@@8 	 DATA
	??_R0?AV?$allocator@V?$basic_sigh_mixin@V?$basic_storage@VBuffer@Gfx@Component@LoFi@@W4entity@entt@@V?$allocator@VBuffer@Gfx@Component@LoFi@@@std@@X@entt@@V?$basic_registry@W4entity@entt@@V?$allocator@W4entity@entt@@@std@@@2@@entt@@@std@@@8 	 DATA
	??_R0?AV?$allocator@V?$basic_sigh_mixin@V?$basic_storage@VKernel@Gfx@Component@LoFi@@W4entity@entt@@V?$allocator@VKernel@Gfx@Component@LoFi@@@std@@X@entt@@V?$basic_registry@W4entity@entt@@V?$allocator@W4entity@entt@@@std@@@2@@entt@@@std@@@8 	 DATA
	??_R0?AV?$allocator@V?$basic_sigh_mixin@V?$basic_storage@VProgram@Gfx@Component@LoFi@@W4entity@entt@@V?$allocator@VProgram@Gfx@Component@LoFi@@@std@@X@entt@@V?$basic_registry@W4entity@entt@@V?$allocator@W4entity@entt@@@std@@@2@@entt@@@std@@@8 	 DATA
	??_R0?AV?$allocator@V?$basic_sigh_mixin@V?$basic_storage@VSwapchain@Gfx@Component@LoFi@@W4entity@entt@@V?$allocator@VSwapchain@Gfx@Component@LoFi@@@std@@X@entt@@V?$basic_registry@W4entity@entt@@V?$allocator@W4entity@entt@@@std@@@2@@entt@@@std@@@8 	 DATA
	??_R0?AV?$allocator@V?$basic_sigh_mixin@V?$basic_storage@VTexture@Gfx@Component@LoFi@@W4entity@entt@@V?$allocator@VTexture@Gfx@Component@LoFi@@@std@@X@entt@@V?$basic_registry@W4entity@entt@@V?$allocator@W4entity@entt@@@std@@@2@@entt@@@std@@@8 	 DATA
	??_R0?AV?$allocator@V?$basic_sigh_mixin@V?$basic_storage@VWindow@Gfx@Component@LoFi@@W4entity@entt@@V?$allocator@VWindow@Gfx@Component@LoFi@@@std@@X@entt@@V?$basic_registry@W4entity@entt@@V?$allocator@W4entity@entt@@@std@@@2@@entt@@@std@@@8 	 DATA
	??_R0?AV?$basic_filebuf@DU?$char_traits@D@std@@@std@@@8 	 DATA
	??_R0?AV?$basic_ifstream@DU?$char_traits@D@std@@@std@@@8 	 DATA
	??_R0?AV?$basic_ios@DU?$char_traits@D@std@@@std@@@8 	 DATA
	??_R0?AV?$basic_istream@DU?$char_traits@D@std@@@std@@@8 	 DATA
	??_R0?AV?$basic_ofstream@DU?$char_traits@D@std@@@std@@@8 	 DATA
	??_R0?AV?$basic_ostream@DU?$char_traits@D@std@@@std@@@8 	 DATA
	??_R0?AV?$basic_ostringstream@DU?$char_traits@D@std@@V?$allocator@D@2@@std@@@8 	 DATA
	??_R0?AV?$basic_sigh_mixin@V?$basic_storage@UTagDataChanged@Gfx@Component@LoFi@@W4entity@entt@@V?$allocator@UTagDataChanged@Gfx@Component@LoFi@@@std@@X@entt@@V?$basic_registry@W4entity@entt@@V?$allocator@W4entity@entt@@@std@@@2@@entt@@@8 	 DATA
	??_R0?AV?$basic_sigh_mixin@V?$basic_storage@UTagDataUpdateCompleted@Gfx@Component@LoFi@@W4entity@entt@@V?$allocator@UTagDataUpdateCompleted@Gfx@Component@LoFi@@@std@@X@entt@@V?$basic_registry@W4entity@entt@@V?$allocator@W4entity@entt@@@std@@@2@@entt@@@8 	 DATA
	??_R0?AV?$basic_sigh_mixin@V?$basic_storage@VBuffer3F@Gfx@Component@LoFi@@W4entity@entt@@V?$allocator@VBuffer3F@Gfx@Component@LoFi@@@std@@X@entt@@V?$basic_registry@W4entity@entt@@V?$allocator@W4entity@entt@@@std@@@2@@entt@@@8 	 DATA
	??_R0?AV?$basic_sigh_mixin@V?$basic_storage@VBuffer@Gfx@Component@LoFi@@W4entity@entt@@V?$allocator@VBuffer@Gfx@Component@LoFi@@@std@@X@entt@@V?$basic_registry@W4entity@entt@@V?$allocator@W4entity@entt@@@std@@@2@@entt@@@8 	 DATA
	??_R0?AV?$basic_sigh_mixin@V?$basic_storage@VKernel@Gfx@Component@LoFi@@W4entity@entt@@V?$allocator@VKernel@Gfx@Component@LoFi@@@std@@X@entt@@V?$basic_registry@W4entity@entt@@V?$allocator@W4entity@entt@@@std@@@2@@entt@@@8 	 DATA
	??_R0?AV?$basic_sigh_mixin@V?$basic_storage@VProgram@Gfx@Component@LoFi@@W4entity@entt@@V?$allocator@VProgram@Gfx@Component@LoFi@@@std@@X@entt@@V?$basic_registry@W4entity@entt@@V?$allocator@W4entity@entt@@@std@@@2@@entt@@@8 	 DATA
	??_R0?AV?$basic_sigh_mixin@V?$basic_storage@VSwapchain@Gfx@Component@LoFi@@W4entity@entt@@V?$allocator@VSwapchain@Gfx@Component@LoFi@@@std@@X@entt@@V?$basic_registry@W4entity@entt@@V?$allocator@W4entity@entt@@@std@@@2@@entt@@@8 	 DATA
	??_R0?AV?$basic_sigh_mixin@V?$basic_storage@VTexture@Gfx@Component@LoFi@@W4entity@entt@@V?$allocator@VTexture@Gfx@Component@LoFi@@@std@@X@entt@@V?$basic_registry@W4entity@entt@@V?$allocator@W4entity@entt@@@std@@@2@@entt@@@8 	 DATA
	??_R0?AV?$basic_sigh_mixin@V?$basic_storage@VWindow@Gfx@Component@LoFi@@W4entity@entt@@V?$allocator@VWindow@Gfx@Component@LoFi@@@std@@X@entt@@V?$basic_registry@W4entity@entt@@V?$allocator@W4entity@entt@@@std@@@2@@entt@@@8 	 DATA
	??_R0?AV?$basic_sigh_mixin@V?$basic_storage@W4entity@entt@@W412@V?$allocator@W4entity@entt@@@std@@X@entt@@V?$basic_registry@W4entity@entt@@V?$allocator@W4entity@entt@@@std@@@2@@entt@@@8 	 DATA
	??_R0?AV?$basic_sparse_set@W4entity@entt@@V?$allocator@W4entity@entt@@@std@@@entt@@@8 	 DATA
	??_R0?AV?$basic_storage@UTagDataChanged@Gfx@Component@LoFi@@W4entity@entt@@V?$allocator@UTagDataChanged@Gfx@Component@LoFi@@@std@@X@entt@@@8 	 DATA
	??_R0?AV?$basic_storage@UTagDataUpdateCompleted@Gfx@Component@LoFi@@W4entity@entt@@V?$allocator@UTagDataUpdateCompleted@Gfx@Component@LoFi@@@std@@X@entt@@@8 	 DATA
	??_R0?AV?$basic_storage@VBuffer3F@Gfx@Component@LoFi@@W4entity@entt@@V?$allocator@VBuffer3F@Gfx@Component@LoFi@@@std@@X@entt@@@8 	 DATA
	??_R0?AV?$basic_storage@VBuffer@Gfx@Component@LoFi@@W4entity@entt@@V?$allocator@VBuffer@Gfx@Component@LoFi@@@std@@X@entt@@@8 	 DATA
	??_R0?AV?$basic_storage@VKernel@Gfx@Component@LoFi@@W4entity@entt@@V?$allocator@VKernel@Gfx@Component@LoFi@@@std@@X@entt@@@8 	 DATA
	??_R0?AV?$basic_storage@VProgram@Gfx@Component@LoFi@@W4entity@entt@@V?$allocator@VProgram@Gfx@Component@LoFi@@@std@@X@entt@@@8 	 DATA
	??_R0?AV?$basic_storage@VSwapchain@Gfx@Component@LoFi@@W4entity@entt@@V?$allocator@VSwapchain@Gfx@Component@LoFi@@@std@@X@entt@@@8 	 DATA
	??_R0?AV?$basic_storage@VTexture@Gfx@Component@LoFi@@W4entity@entt@@V?$allocator@VTexture@Gfx@Component@LoFi@@@std@@X@entt@@@8 	 DATA
	??_R0?AV?$basic_storage@VWindow@Gfx@Component@LoFi@@W4entity@entt@@V?$allocator@VWindow@Gfx@Component@LoFi@@@std@@X@entt@@@8 	 DATA
	??_R0?AV?$basic_storage@W4entity@entt@@W412@V?$allocator@W4entity@entt@@@std@@X@entt@@@8 	 DATA
	??_R0?AV?$basic_streambuf@DU?$char_traits@D@std@@@std@@@8 	 DATA
	??_R0?AV?$basic_stringbuf@DU?$char_traits@D@std@@V?$allocator@D@2@@std@@@8 	 DATA
	??_R0?AV?$numpunct@D@std@@@8 	 DATA
	??_R0?AVCompiler@spirv_cross@@@8 	 DATA
	??_R0?AVCompilerError@spirv_cross@@@8 	 DATA
	??_R0?AVObserverInterface@tf@@@8 	 DATA
	??_R0?AVTFProfObserver@tf@@@8 	 DATA
	??_R0?AVVmaBlockMetadata@@@8 	 DATA
	??_R0?AVVmaBlockMetadata_Linear@@@8 	 DATA
	??_R0?AVVmaBlockMetadata_TLSF@@@8 	 DATA
	??_R0?AV_CancellationTokenRegistration@details@Concurrency@@@8 	 DATA
	??_R0?AV_DefaultPPLTaskScheduler@details@Concurrency@@@8 	 DATA
	??_R0?AV_Facet_base@std@@@8 	 DATA
	??_R0?AV_Future_error_category2@std@@@8 	 DATA
	??_R0?AV_Generic_error_category@std@@@8 	 DATA
	??_R0?AV_Interruption_exception@details@Concurrency@@@8 	 DATA
	??_R0?AV_RefCounter@details@Concurrency@@@8 	 DATA
	??_R0?AV_Ref_count_base@std@@@8 	 DATA
	??_R0?AV_System_error@std@@@8 	 DATA
	??_R0?AVbad_alloc@std@@@8 	 DATA
	??_R0?AVbad_array_new_length@std@@@8 	 DATA
	??_R0?AVbad_cast@std@@@8 	 DATA
	??_R0?AVbad_optional_access@std@@@8 	 DATA
	??_R0?AVerror_category@std@@@8 	 DATA
	??_R0?AVexception@std@@@8 	 DATA
	??_R0?AVfacet@locale@std@@@8 	 DATA
	??_R0?AVformat_error@std@@@8 	 DATA
	??_R0?AVfuture_error@std@@@8 	 DATA
	??_R0?AVinvalid_operation@Concurrency@@@8 	 DATA
	??_R0?AVios_base@std@@@8 	 DATA
	??_R0?AVlogic_error@std@@@8 	 DATA
	??_R0?AVruntime_error@std@@@8 	 DATA
	??_R0?AVsystem_error@std@@@8 	 DATA
	??_R0?AVtask_canceled@Concurrency@@@8 	 DATA
	??__J?1??instance@ThreadExitNotifier@details@moodycamel@@CAAEAV123@XZ@51 	 DATA
	?ErrorCount@MessageManager@LoFi@@0IA 	 DATA
	?GlobalContext@GfxContext@LoFi@@0PEAV12@EA 	 DATA
	?Messages@MessageManager@LoFi@@0V?$list@UMessage@LoFi@@V?$allocator@UMessage@LoFi@@@std@@@std@@A 	 DATA
	?NormalCount@MessageManager@LoFi@@0IA 	 DATA
	?ShaderTypeMap@Program@Gfx@Component@LoFi@@0V?$map@V?$basic_string@DU?$char_traits@D@std@@V?$allocator@D@2@@std@@W4glslang_stage_t@@U?$less@V?$basic_string@DU?$char_traits@D@std@@V?$allocator@D@2@@std@@@2@V?$allocator@U?$pair@$$CBV?$basic_string@DU?$char_traits@D@std@@V?$allocator@D@2@@std@@W4glslang_stage_t@@@std@@@2@@std@@A 	 DATA
	?WarningCount@MessageManager@LoFi@@0IA 	 DATA
	?_Flag@?1??_GetStaticAmbientSchedulerRef@details@Concurrency@@YAAEAV?$shared_ptr@Uscheduler_interface@Concurrency@@@std@@XZ@4Uonce_flag@5@A 	 DATA
	?_OptionsStorage@?1??__local_stdio_printf_options@@9@4_KA 	 DATA
	?_Psave@?$_Facetptr@V?$codecvt@DDU_Mbstatet@@@std@@@std@@2PEBVfacet@locale@2@EB 	 DATA
	?_Psave@?$_Facetptr@V?$numpunct@D@std@@@std@@2PEBVfacet@locale@2@EB 	 DATA
	?_S_scheduler@?1??_GetStaticAmbientSchedulerStorage@details@Concurrency@@YAPEAV?$shared_ptr@Uscheduler_interface@Concurrency@@@std@@XZ@4V45@A 	 DATA
	?_S_scheduler_address@?1??_GetStaticAmbientSchedulerRef@details@Concurrency@@YAAEAV?$shared_ptr@Uscheduler_interface@Concurrency@@@std@@XZ@4PEAV45@EA 	 DATA
	?_Stinit@?1??_Init@?$basic_filebuf@DU?$char_traits@D@std@@@std@@IEAAXPEAU_iobuf@@W4_Initfl@23@@Z@4U_Mbstatet@@A 	 DATA
	?_instance@PfxContext@LoFi@@0PEAV12@EA 	 DATA
	?counter@?1???$unique_id@_K$0A@@tf@@YA_KXZ@4U?$atomic@_K@std@@A 	 DATA
	?instance@?4???$type_id@UTagDataChanged@Gfx@Component@LoFi@@@entt@@YAAEBUtype_info@1@XZ@4U21@A 	 DATA
	?instance@?4???$type_id@UTagDataUpdateCompleted@Gfx@Component@LoFi@@@entt@@YAAEBUtype_info@1@XZ@4U21@A 	 DATA
	?instance@?4???$type_id@V?$basic_registry@W4entity@entt@@V?$allocator@W4entity@entt@@@std@@@entt@@@entt@@YAAEBUtype_info@1@XZ@4U21@A 	 DATA
	?instance@?4???$type_id@VBuffer3F@Gfx@Component@LoFi@@@entt@@YAAEBUtype_info@1@XZ@4U21@A 	 DATA
	?instance@?4???$type_id@VBuffer@Gfx@Component@LoFi@@@entt@@YAAEBUtype_info@1@XZ@4U21@A 	 DATA
	?instance@?4???$type_id@VKernel@Gfx@Component@LoFi@@@entt@@YAAEBUtype_info@1@XZ@4U21@A 	 DATA
	?instance@?4???$type_id@VProgram@Gfx@Component@LoFi@@@entt@@YAAEBUtype_info@1@XZ@4U21@A 	 DATA
	?instance@?4???$type_id@VSwapchain@Gfx@Component@LoFi@@@entt@@YAAEBUtype_info@1@XZ@4U21@A 	 DATA
	?instance@?4???$type_id@VTexture@Gfx@Component@LoFi@@@entt@@YAAEBUtype_info@1@XZ@4U21@A 	 DATA
	?instance@?4???$type_id@VWindow@Gfx@Component@LoFi@@@entt@@YAAEBUtype_info@1@XZ@4U21@A 	 DATA
	?instance@?4???$type_id@X@entt@@YAAEBUtype_info@1@XZ@4U21@A 	 DATA
	?mgr@?1??get@TFProfManager@tf@@SAAEAV23@XZ@4V23@A 	 DATA
	?mutex@?1??0ThreadExitNotifier@details@moodycamel@@CAAEAV0std@@XZ@4V04@A 	 DATA
	?notifier@?1??instance@ThreadExitNotifier@details@moodycamel@@CAAEAV234@XZ@4V234@A 	 DATA
	?service@?$locator@Vmeta_ctx@entt@@@entt@@0V?$shared_ptr@Vmeta_ctx@entt@@@std@@A 	 DATA
	?value@?1??0?$type_index@UTagDataChanged@Gfx@Component@LoFi@@X@entt@@SAIXZ@4IB 	 DATA
	?value@?1??0?$type_index@UTagDataUpdateCompleted@Gfx@Component@LoFi@@X@entt@@SAIXZ@4IB 	 DATA
	?value@?1??0?$type_index@V?$basic_registry@W4entity@entt@@V?$allocator@W4entity@entt@@@std@@@entt@@X@entt@@SAIXZ@4IB 	 DATA
	?value@?1??0?$type_index@VBuffer3F@Gfx@Component@LoFi@@X@entt@@SAIXZ@4IB 	 DATA
	?value@?1??0?$type_index@VBuffer@Gfx@Component@LoFi@@X@entt@@SAIXZ@4IB 	 DATA
	?value@?1??0?$type_index@VKernel@Gfx@Component@LoFi@@X@entt@@SAIXZ@4IB 	 DATA
	?value@?1??0?$type_index@VProgram@Gfx@Component@LoFi@@X@entt@@SAIXZ@4IB 	 DATA
	?value@?1??0?$type_index@VSwapchain@Gfx@Component@LoFi@@X@entt@@SAIXZ@4IB 	 DATA
	?value@?1??0?$type_index@VTexture@Gfx@Component@LoFi@@X@entt@@SAIXZ@4IB 	 DATA
	?value@?1??0?$type_index@VWindow@Gfx@Component@LoFi@@X@entt@@SAIXZ@4IB 	 DATA
	?value@?1??0?$type_index@XX@entt@@SAIXZ@4IB 	 DATA
	?value@?1??next@type_index@internal@entt@@SAIXZ@4IA 	 DATA
	stbi_write_force_png_filter 	 DATA
	stbi_write_png_compression_level 	 DATA
	stbi_write_tga_with_rle 	 DATA
	vkAcquireDrmDisplayEXT 	 DATA
	vkAcquireNextImage2KHR 	 DATA
	vkAcquireNextImageKHR 	 DATA
	vkAcquirePerformanceConfigurationINTEL 	 DATA
	vkAcquireProfilingLockKHR 	 DATA
	vkAllocateCommandBuffers 	 DATA
	vkAllocateDescriptorSets 	 DATA
	vkAllocateMemory 	 DATA
	vkBeginCommandBuffer 	 DATA
	vkBindAccelerationStructureMemoryNV 	 DATA
	vkBindBufferMemory 	 DATA
	vkBindBufferMemory2 	 DATA
	vkBindBufferMemory2KHR 	 DATA
	vkBindImageMemory 	 DATA
	vkBindImageMemory2 	 DATA
	vkBindImageMemory2KHR 	 DATA
	vkBindOpticalFlowSessionImageNV 	 DATA
	vkBindVideoSessionMemoryKHR 	 DATA
	vkBuildAccelerationStructuresKHR 	 DATA
	vkBuildMicromapsEXT 	 DATA
	vkCmdBeginConditionalRenderingEXT 	 DATA
	vkCmdBeginDebugUtilsLabelEXT 	 DATA
	vkCmdBeginQuery 	 DATA
	vkCmdBeginQueryIndexedEXT 	 DATA
	vkCmdBeginRenderPass 	 DATA
	vkCmdBeginRenderPass2 	 DATA
	vkCmdBeginRenderPass2KHR 	 DATA
	vkCmdBeginRendering 	 DATA
	vkCmdBeginRenderingKHR 	 DATA
	vkCmdBeginTransformFeedbackEXT 	 DATA
	vkCmdBeginVideoCodingKHR 	 DATA
	vkCmdBindDescriptorBufferEmbeddedSamplers2EXT 	 DATA
	vkCmdBindDescriptorBufferEmbeddedSamplersEXT 	 DATA
	vkCmdBindDescriptorBuffersEXT 	 DATA
	vkCmdBindDescriptorSets 	 DATA
	vkCmdBindDescriptorSets2KHR 	 DATA
	vkCmdBindIndexBuffer 	 DATA
	vkCmdBindIndexBuffer2KHR 	 DATA
	vkCmdBindInvocationMaskHUAWEI 	 DATA
	vkCmdBindPipeline 	 DATA
	vkCmdBindPipelineShaderGroupNV 	 DATA
	vkCmdBindShadersEXT 	 DATA
	vkCmdBindShadingRateImageNV 	 DATA
	vkCmdBindTransformFeedbackBuffersEXT 	 DATA
	vkCmdBindVertexBuffers 	 DATA
	vkCmdBindVertexBuffers2 	 DATA
	vkCmdBindVertexBuffers2EXT 	 DATA
	vkCmdBlitImage 	 DATA
	vkCmdBlitImage2 	 DATA
	vkCmdBlitImage2KHR 	 DATA
	vkCmdBuildAccelerationStructureNV 	 DATA
	vkCmdBuildAccelerationStructuresIndirectKHR 	 DATA
	vkCmdBuildAccelerationStructuresKHR 	 DATA
	vkCmdBuildMicromapsEXT 	 DATA
	vkCmdClearAttachments 	 DATA
	vkCmdClearColorImage 	 DATA
	vkCmdClearDepthStencilImage 	 DATA
	vkCmdControlVideoCodingKHR 	 DATA
	vkCmdCopyAccelerationStructureKHR 	 DATA
	vkCmdCopyAccelerationStructureNV 	 DATA
	vkCmdCopyAccelerationStructureToMemoryKHR 	 DATA
	vkCmdCopyBuffer 	 DATA
	vkCmdCopyBuffer2 	 DATA
	vkCmdCopyBuffer2KHR 	 DATA
	vkCmdCopyBufferToImage 	 DATA
	vkCmdCopyBufferToImage2 	 DATA
	vkCmdCopyBufferToImage2KHR 	 DATA
	vkCmdCopyImage 	 DATA
	vkCmdCopyImage2 	 DATA
	vkCmdCopyImage2KHR 	 DATA
	vkCmdCopyImageToBuffer 	 DATA
	vkCmdCopyImageToBuffer2 	 DATA
	vkCmdCopyImageToBuffer2KHR 	 DATA
	vkCmdCopyMemoryIndirectNV 	 DATA
	vkCmdCopyMemoryToAccelerationStructureKHR 	 DATA
	vkCmdCopyMemoryToImageIndirectNV 	 DATA
	vkCmdCopyMemoryToMicromapEXT 	 DATA
	vkCmdCopyMicromapEXT 	 DATA
	vkCmdCopyMicromapToMemoryEXT 	 DATA
	vkCmdCopyQueryPoolResults 	 DATA
	vkCmdCuLaunchKernelNVX 	 DATA
	vkCmdCudaLaunchKernelNV 	 DATA
	vkCmdDebugMarkerBeginEXT 	 DATA
	vkCmdDebugMarkerEndEXT 	 DATA
	vkCmdDebugMarkerInsertEXT 	 DATA
	vkCmdDecodeVideoKHR 	 DATA
	vkCmdDecompressMemoryIndirectCountNV 	 DATA
	vkCmdDecompressMemoryNV 	 DATA
	vkCmdDispatch 	 DATA
	vkCmdDispatchBase 	 DATA
	vkCmdDispatchBaseKHR 	 DATA
	vkCmdDispatchIndirect 	 DATA
	vkCmdDraw 	 DATA
	vkCmdDrawClusterHUAWEI 	 DATA
	vkCmdDrawClusterIndirectHUAWEI 	 DATA
	vkCmdDrawIndexed 	 DATA
	vkCmdDrawIndexedIndirect 	 DATA
	vkCmdDrawIndexedIndirectCount 	 DATA
	vkCmdDrawIndexedIndirectCountAMD 	 DATA
	vkCmdDrawIndexedIndirectCountKHR 	 DATA
	vkCmdDrawIndirect 	 DATA
	vkCmdDrawIndirectByteCountEXT 	 DATA
	vkCmdDrawIndirectCount 	 DATA
	vkCmdDrawIndirectCountAMD 	 DATA
	vkCmdDrawIndirectCountKHR 	 DATA
	vkCmdDrawMeshTasksEXT 	 DATA
	vkCmdDrawMeshTasksIndirectCountEXT 	 DATA
	vkCmdDrawMeshTasksIndirectCountNV 	 DATA
	vkCmdDrawMeshTasksIndirectEXT 	 DATA
	vkCmdDrawMeshTasksIndirectNV 	 DATA
	vkCmdDrawMeshTasksNV 	 DATA
	vkCmdDrawMultiEXT 	 DATA
	vkCmdDrawMultiIndexedEXT 	 DATA
	vkCmdEncodeVideoKHR 	 DATA
	vkCmdEndConditionalRenderingEXT 	 DATA
	vkCmdEndDebugUtilsLabelEXT 	 DATA
	vkCmdEndQuery 	 DATA
	vkCmdEndQueryIndexedEXT 	 DATA
	vkCmdEndRenderPass 	 DATA
	vkCmdEndRenderPass2 	 DATA
	vkCmdEndRenderPass2KHR 	 DATA
	vkCmdEndRendering 	 DATA
	vkCmdEndRenderingKHR 	 DATA
	vkCmdEndTransformFeedbackEXT 	 DATA
	vkCmdEndVideoCodingKHR 	 DATA
	vkCmdExecuteCommands 	 DATA
	vkCmdExecuteGeneratedCommandsNV 	 DATA
	vkCmdFillBuffer 	 DATA
	vkCmdInsertDebugUtilsLabelEXT 	 DATA
	vkCmdNextSubpass 	 DATA
	vkCmdNextSubpass2 	 DATA
	vkCmdNextSubpass2KHR 	 DATA
	vkCmdOpticalFlowExecuteNV 	 DATA
	vkCmdPipelineBarrier 	 DATA
	vkCmdPipelineBarrier2 	 DATA
	vkCmdPipelineBarrier2KHR 	 DATA
	vkCmdPreprocessGeneratedCommandsNV 	 DATA
	vkCmdPushConstants 	 DATA
	vkCmdPushConstants2KHR 	 DATA
	vkCmdPushDescriptorSet2KHR 	 DATA
	vkCmdPushDescriptorSetKHR 	 DATA
	vkCmdPushDescriptorSetWithTemplate2KHR 	 DATA
	vkCmdPushDescriptorSetWithTemplateKHR 	 DATA
	vkCmdResetEvent 	 DATA
	vkCmdResetEvent2 	 DATA
	vkCmdResetEvent2KHR 	 DATA
	vkCmdResetQueryPool 	 DATA
	vkCmdResolveImage 	 DATA
	vkCmdResolveImage2 	 DATA
	vkCmdResolveImage2KHR 	 DATA
	vkCmdSetAlphaToCoverageEnableEXT 	 DATA
	vkCmdSetAlphaToOneEnableEXT 	 DATA
	vkCmdSetAttachmentFeedbackLoopEnableEXT 	 DATA
	vkCmdSetBlendConstants 	 DATA
	vkCmdSetCheckpointNV 	 DATA
	vkCmdSetCoarseSampleOrderNV 	 DATA
	vkCmdSetColorBlendAdvancedEXT 	 DATA
	vkCmdSetColorBlendEnableEXT 	 DATA
	vkCmdSetColorBlendEquationEXT 	 DATA
	vkCmdSetColorWriteEnableEXT 	 DATA
	vkCmdSetColorWriteMaskEXT 	 DATA
	vkCmdSetConservativeRasterizationModeEXT 	 DATA
	vkCmdSetCoverageModulationModeNV 	 DATA
	vkCmdSetCoverageModulationTableEnableNV 	 DATA
	vkCmdSetCoverageModulationTableNV 	 DATA
	vkCmdSetCoverageReductionModeNV 	 DATA
	vkCmdSetCoverageToColorEnableNV 	 DATA
	vkCmdSetCoverageToColorLocationNV 	 DATA
	vkCmdSetCullMode 	 DATA
	vkCmdSetCullModeEXT 	 DATA
	vkCmdSetDepthBias 	 DATA
	vkCmdSetDepthBias2EXT 	 DATA
	vkCmdSetDepthBiasEnable 	 DATA
	vkCmdSetDepthBiasEnableEXT 	 DATA
	vkCmdSetDepthBounds 	 DATA
	vkCmdSetDepthBoundsTestEnable 	 DATA
	vkCmdSetDepthBoundsTestEnableEXT 	 DATA
	vkCmdSetDepthClampEnableEXT 	 DATA
	vkCmdSetDepthClipEnableEXT 	 DATA
	vkCmdSetDepthClipNegativeOneToOneEXT 	 DATA
	vkCmdSetDepthCompareOp 	 DATA
	vkCmdSetDepthCompareOpEXT 	 DATA
	vkCmdSetDepthTestEnable 	 DATA
	vkCmdSetDepthTestEnableEXT 	 DATA
	vkCmdSetDepthWriteEnable 	 DATA
	vkCmdSetDepthWriteEnableEXT 	 DATA
	vkCmdSetDescriptorBufferOffsets2EXT 	 DATA
	vkCmdSetDescriptorBufferOffsetsEXT 	 DATA
	vkCmdSetDeviceMask 	 DATA
	vkCmdSetDeviceMaskKHR 	 DATA
	vkCmdSetDiscardRectangleEXT 	 DATA
	vkCmdSetDiscardRectangleEnableEXT 	 DATA
	vkCmdSetDiscardRectangleModeEXT 	 DATA
	vkCmdSetEvent 	 DATA
	vkCmdSetEvent2 	 DATA
	vkCmdSetEvent2KHR 	 DATA
	vkCmdSetExclusiveScissorEnableNV 	 DATA
	vkCmdSetExclusiveScissorNV 	 DATA
	vkCmdSetExtraPrimitiveOverestimationSizeEXT 	 DATA
	vkCmdSetFragmentShadingRateEnumNV 	 DATA
	vkCmdSetFragmentShadingRateKHR 	 DATA
	vkCmdSetFrontFace 	 DATA
	vkCmdSetFrontFaceEXT 	 DATA
	vkCmdSetLineRasterizationModeEXT 	 DATA
	vkCmdSetLineStippleEXT 	 DATA
	vkCmdSetLineStippleEnableEXT 	 DATA
	vkCmdSetLineStippleKHR 	 DATA
	vkCmdSetLineWidth 	 DATA
	vkCmdSetLogicOpEXT 	 DATA
	vkCmdSetLogicOpEnableEXT 	 DATA
	vkCmdSetPatchControlPointsEXT 	 DATA
	vkCmdSetPerformanceMarkerINTEL 	 DATA
	vkCmdSetPerformanceOverrideINTEL 	 DATA
	vkCmdSetPerformanceStreamMarkerINTEL 	 DATA
	vkCmdSetPolygonModeEXT 	 DATA
	vkCmdSetPrimitiveRestartEnable 	 DATA
	vkCmdSetPrimitiveRestartEnableEXT 	 DATA
	vkCmdSetPrimitiveTopology 	 DATA
	vkCmdSetPrimitiveTopologyEXT 	 DATA
	vkCmdSetProvokingVertexModeEXT 	 DATA
	vkCmdSetRasterizationSamplesEXT 	 DATA
	vkCmdSetRasterizationStreamEXT 	 DATA
	vkCmdSetRasterizerDiscardEnable 	 DATA
	vkCmdSetRasterizerDiscardEnableEXT 	 DATA
	vkCmdSetRayTracingPipelineStackSizeKHR 	 DATA
	vkCmdSetRenderingAttachmentLocationsKHR 	 DATA
	vkCmdSetRenderingInputAttachmentIndicesKHR 	 DATA
	vkCmdSetRepresentativeFragmentTestEnableNV 	 DATA
	vkCmdSetSampleLocationsEXT 	 DATA
	vkCmdSetSampleLocationsEnableEXT 	 DATA
	vkCmdSetSampleMaskEXT 	 DATA
	vkCmdSetScissor 	 DATA
	vkCmdSetScissorWithCount 	 DATA
	vkCmdSetScissorWithCountEXT 	 DATA
	vkCmdSetShadingRateImageEnableNV 	 DATA
	vkCmdSetStencilCompareMask 	 DATA
	vkCmdSetStencilOp 	 DATA
	vkCmdSetStencilOpEXT 	 DATA
	vkCmdSetStencilReference 	 DATA
	vkCmdSetStencilTestEnable 	 DATA
	vkCmdSetStencilTestEnableEXT 	 DATA
	vkCmdSetStencilWriteMask 	 DATA
	vkCmdSetTessellationDomainOriginEXT 	 DATA
	vkCmdSetVertexInputEXT 	 DATA
	vkCmdSetViewport 	 DATA
	vkCmdSetViewportShadingRatePaletteNV 	 DATA
	vkCmdSetViewportSwizzleNV 	 DATA
	vkCmdSetViewportWScalingEnableNV 	 DATA
	vkCmdSetViewportWScalingNV 	 DATA
	vkCmdSetViewportWithCount 	 DATA
	vkCmdSetViewportWithCountEXT 	 DATA
	vkCmdSubpassShadingHUAWEI 	 DATA
	vkCmdTraceRaysIndirect2KHR 	 DATA
	vkCmdTraceRaysIndirectKHR 	 DATA
	vkCmdTraceRaysKHR 	 DATA
	vkCmdTraceRaysNV 	 DATA
	vkCmdUpdateBuffer 	 DATA
	vkCmdUpdatePipelineIndirectBufferNV 	 DATA
	vkCmdWaitEvents 	 DATA
	vkCmdWaitEvents2 	 DATA
	vkCmdWaitEvents2KHR 	 DATA
	vkCmdWriteAccelerationStructuresPropertiesKHR 	 DATA
	vkCmdWriteAccelerationStructuresPropertiesNV 	 DATA
	vkCmdWriteBufferMarker2AMD 	 DATA
	vkCmdWriteBufferMarkerAMD 	 DATA
	vkCmdWriteMicromapsPropertiesEXT 	 DATA
	vkCmdWriteTimestamp 	 DATA
	vkCmdWriteTimestamp2 	 DATA
	vkCmdWriteTimestamp2KHR 	 DATA
	vkCompileDeferredNV 	 DATA
	vkCopyAccelerationStructureKHR 	 DATA
	vkCopyAccelerationStructureToMemoryKHR 	 DATA
	vkCopyImageToImageEXT 	 DATA
	vkCopyImageToMemoryEXT 	 DATA
	vkCopyMemoryToAccelerationStructureKHR 	 DATA
	vkCopyMemoryToImageEXT 	 DATA
	vkCopyMemoryToMicromapEXT 	 DATA
	vkCopyMicromapEXT 	 DATA
	vkCopyMicromapToMemoryEXT 	 DATA
	vkCreateAccelerationStructureKHR 	 DATA
	vkCreateAccelerationStructureNV 	 DATA
	vkCreateBuffer 	 DATA
	vkCreateBufferView 	 DATA
	vkCreateCommandPool 	 DATA
	vkCreateComputePipelines 	 DATA
	vkCreateCuFunctionNVX 	 DATA
	vkCreateCuModuleNVX 	 DATA
	vkCreateCudaFunctionNV 	 DATA
	vkCreateCudaModuleNV 	 DATA
	vkCreateDebugReportCallbackEXT 	 DATA
	vkCreateDebugUtilsMessengerEXT 	 DATA
	vkCreateDeferredOperationKHR 	 DATA
	vkCreateDescriptorPool 	 DATA
	vkCreateDescriptorSetLayout 	 DATA
	vkCreateDescriptorUpdateTemplate 	 DATA
	vkCreateDescriptorUpdateTemplateKHR 	 DATA
	vkCreateDevice 	 DATA
	vkCreateDisplayModeKHR 	 DATA
	vkCreateDisplayPlaneSurfaceKHR 	 DATA
	vkCreateEvent 	 DATA
	vkCreateFence 	 DATA
	vkCreateFramebuffer 	 DATA
	vkCreateGraphicsPipelines 	 DATA
	vkCreateHeadlessSurfaceEXT 	 DATA
	vkCreateImage 	 DATA
	vkCreateImageView 	 DATA
	vkCreateIndirectCommandsLayoutNV 	 DATA
	vkCreateInstance 	 DATA
	vkCreateMicromapEXT 	 DATA
	vkCreateOpticalFlowSessionNV 	 DATA
	vkCreatePipelineCache 	 DATA
	vkCreatePipelineLayout 	 DATA
	vkCreatePrivateDataSlot 	 DATA
	vkCreatePrivateDataSlotEXT 	 DATA
	vkCreateQueryPool 	 DATA
	vkCreateRayTracingPipelinesKHR 	 DATA
	vkCreateRayTracingPipelinesNV 	 DATA
	vkCreateRenderPass 	 DATA
	vkCreateRenderPass2 	 DATA
	vkCreateRenderPass2KHR 	 DATA
	vkCreateSampler 	 DATA
	vkCreateSamplerYcbcrConversion 	 DATA
	vkCreateSamplerYcbcrConversionKHR 	 DATA
	vkCreateSemaphore 	 DATA
	vkCreateShaderModule 	 DATA
	vkCreateShadersEXT 	 DATA
	vkCreateSharedSwapchainsKHR 	 DATA
	vkCreateSwapchainKHR 	 DATA
	vkCreateValidationCacheEXT 	 DATA
	vkCreateVideoSessionKHR 	 DATA
	vkCreateVideoSessionParametersKHR 	 DATA
	vkDebugMarkerSetObjectNameEXT 	 DATA
	vkDebugMarkerSetObjectTagEXT 	 DATA
	vkDebugReportMessageEXT 	 DATA
	vkDeferredOperationJoinKHR 	 DATA
	vkDestroyAccelerationStructureKHR 	 DATA
	vkDestroyAccelerationStructureNV 	 DATA
	vkDestroyBuffer 	 DATA
	vkDestroyBufferView 	 DATA
	vkDestroyCommandPool 	 DATA
	vkDestroyCuFunctionNVX 	 DATA
	vkDestroyCuModuleNVX 	 DATA
	vkDestroyCudaFunctionNV 	 DATA
	vkDestroyCudaModuleNV 	 DATA
	vkDestroyDebugReportCallbackEXT 	 DATA
	vkDestroyDebugUtilsMessengerEXT 	 DATA
	vkDestroyDeferredOperationKHR 	 DATA
	vkDestroyDescriptorPool 	 DATA
	vkDestroyDescriptorSetLayout 	 DATA
	vkDestroyDescriptorUpdateTemplate 	 DATA
	vkDestroyDescriptorUpdateTemplateKHR 	 DATA
	vkDestroyDevice 	 DATA
	vkDestroyEvent 	 DATA
	vkDestroyFence 	 DATA
	vkDestroyFramebuffer 	 DATA
	vkDestroyImage 	 DATA
	vkDestroyImageView 	 DATA
	vkDestroyIndirectCommandsLayoutNV 	 DATA
	vkDestroyInstance 	 DATA
	vkDestroyMicromapEXT 	 DATA
	vkDestroyOpticalFlowSessionNV 	 DATA
	vkDestroyPipeline 	 DATA
	vkDestroyPipelineCache 	 DATA
	vkDestroyPipelineLayout 	 DATA
	vkDestroyPrivateDataSlot 	 DATA
	vkDestroyPrivateDataSlotEXT 	 DATA
	vkDestroyQueryPool 	 DATA
	vkDestroyRenderPass 	 DATA
	vkDestroySampler 	 DATA
	vkDestroySamplerYcbcrConversion 	 DATA
	vkDestroySamplerYcbcrConversionKHR 	 DATA
	vkDestroySemaphore 	 DATA
	vkDestroyShaderEXT 	 DATA
	vkDestroyShaderModule 	 DATA
	vkDestroySurfaceKHR 	 DATA
	vkDestroySwapchainKHR 	 DATA
	vkDestroyValidationCacheEXT 	 DATA
	vkDestroyVideoSessionKHR 	 DATA
	vkDestroyVideoSessionParametersKHR 	 DATA
	vkDeviceWaitIdle 	 DATA
	vkDisplayPowerControlEXT 	 DATA
	vkEndCommandBuffer 	 DATA
	vkEnumerateDeviceExtensionProperties 	 DATA
	vkEnumerateDeviceLayerProperties 	 DATA
	vkEnumerateInstanceExtensionProperties 	 DATA
	vkEnumerateInstanceLayerProperties 	 DATA
	vkEnumerateInstanceVersion 	 DATA
	vkEnumeratePhysicalDeviceGroups 	 DATA
	vkEnumeratePhysicalDeviceGroupsKHR 	 DATA
	vkEnumeratePhysicalDeviceQueueFamilyPerformanceQueryCountersKHR 	 DATA
	vkEnumeratePhysicalDevices 	 DATA
	vkFlushMappedMemoryRanges 	 DATA
	vkFreeCommandBuffers 	 DATA
	vkFreeDescriptorSets 	 DATA
	vkFreeMemory 	 DATA
	vkGetAccelerationStructureBuildSizesKHR 	 DATA
	vkGetAccelerationStructureDeviceAddressKHR 	 DATA
	vkGetAccelerationStructureHandleNV 	 DATA
	vkGetAccelerationStructureMemoryRequirementsNV 	 DATA
	vkGetAccelerationStructureOpaqueCaptureDescriptorDataEXT 	 DATA
	vkGetBufferDeviceAddress 	 DATA
	vkGetBufferDeviceAddressEXT 	 DATA
	vkGetBufferDeviceAddressKHR 	 DATA
	vkGetBufferMemoryRequirements 	 DATA
	vkGetBufferMemoryRequirements2 	 DATA
	vkGetBufferMemoryRequirements2KHR 	 DATA
	vkGetBufferOpaqueCaptureAddress 	 DATA
	vkGetBufferOpaqueCaptureAddressKHR 	 DATA
	vkGetBufferOpaqueCaptureDescriptorDataEXT 	 DATA
	vkGetCalibratedTimestampsEXT 	 DATA
	vkGetCalibratedTimestampsKHR 	 DATA
	vkGetCudaModuleCacheNV 	 DATA
	vkGetDeferredOperationMaxConcurrencyKHR 	 DATA
	vkGetDeferredOperationResultKHR 	 DATA
	vkGetDescriptorEXT 	 DATA
	vkGetDescriptorSetHostMappingVALVE 	 DATA
	vkGetDescriptorSetLayoutBindingOffsetEXT 	 DATA
	vkGetDescriptorSetLayoutHostMappingInfoVALVE 	 DATA
	vkGetDescriptorSetLayoutSizeEXT 	 DATA
	vkGetDescriptorSetLayoutSupport 	 DATA
	vkGetDescriptorSetLayoutSupportKHR 	 DATA
	vkGetDeviceAccelerationStructureCompatibilityKHR 	 DATA
	vkGetDeviceBufferMemoryRequirements 	 DATA
	vkGetDeviceBufferMemoryRequirementsKHR 	 DATA
	vkGetDeviceFaultInfoEXT 	 DATA
	vkGetDeviceGroupPeerMemoryFeatures 	 DATA
	vkGetDeviceGroupPeerMemoryFeaturesKHR 	 DATA
	vkGetDeviceGroupPresentCapabilitiesKHR 	 DATA
	vkGetDeviceGroupSurfacePresentModesKHR 	 DATA
	vkGetDeviceImageMemoryRequirements 	 DATA
	vkGetDeviceImageMemoryRequirementsKHR 	 DATA
	vkGetDeviceImageSparseMemoryRequirements 	 DATA
	vkGetDeviceImageSparseMemoryRequirementsKHR 	 DATA
	vkGetDeviceImageSubresourceLayoutKHR 	 DATA
	vkGetDeviceMemoryCommitment 	 DATA
	vkGetDeviceMemoryOpaqueCaptureAddress 	 DATA
	vkGetDeviceMemoryOpaqueCaptureAddressKHR 	 DATA
	vkGetDeviceMicromapCompatibilityEXT 	 DATA
	vkGetDeviceProcAddr 	 DATA
	vkGetDeviceQueue 	 DATA
	vkGetDeviceQueue2 	 DATA
	vkGetDeviceSubpassShadingMaxWorkgroupSizeHUAWEI 	 DATA
	vkGetDisplayModeProperties2KHR 	 DATA
	vkGetDisplayModePropertiesKHR 	 DATA
	vkGetDisplayPlaneCapabilities2KHR 	 DATA
	vkGetDisplayPlaneCapabilitiesKHR 	 DATA
	vkGetDisplayPlaneSupportedDisplaysKHR 	 DATA
	vkGetDrmDisplayEXT 	 DATA
	vkGetDynamicRenderingTilePropertiesQCOM 	 DATA
	vkGetEncodedVideoSessionParametersKHR 	 DATA
	vkGetEventStatus 	 DATA
	vkGetFenceFdKHR 	 DATA
	vkGetFenceStatus 	 DATA
	vkGetFramebufferTilePropertiesQCOM 	 DATA
	vkGetGeneratedCommandsMemoryRequirementsNV 	 DATA
	vkGetImageDrmFormatModifierPropertiesEXT 	 DATA
	vkGetImageMemoryRequirements 	 DATA
	vkGetImageMemoryRequirements2 	 DATA
	vkGetImageMemoryRequirements2KHR 	 DATA
	vkGetImageOpaqueCaptureDescriptorDataEXT 	 DATA
	vkGetImageSparseMemoryRequirements 	 DATA
	vkGetImageSparseMemoryRequirements2 	 DATA
	vkGetImageSparseMemoryRequirements2KHR 	 DATA
	vkGetImageSubresourceLayout 	 DATA
	vkGetImageSubresourceLayout2EXT 	 DATA
	vkGetImageSubresourceLayout2KHR 	 DATA
	vkGetImageViewAddressNVX 	 DATA
	vkGetImageViewHandleNVX 	 DATA
	vkGetImageViewOpaqueCaptureDescriptorDataEXT 	 DATA
	vkGetInstanceProcAddr 	 DATA
	vkGetLatencyTimingsNV 	 DATA
	vkGetMemoryFdKHR 	 DATA
	vkGetMemoryFdPropertiesKHR 	 DATA
	vkGetMemoryHostPointerPropertiesEXT 	 DATA
	vkGetMemoryRemoteAddressNV 	 DATA
	vkGetMicromapBuildSizesEXT 	 DATA
	vkGetPastPresentationTimingGOOGLE 	 DATA
	vkGetPerformanceParameterINTEL 	 DATA
	vkGetPhysicalDeviceCalibrateableTimeDomainsEXT 	 DATA
	vkGetPhysicalDeviceCalibrateableTimeDomainsKHR 	 DATA
	vkGetPhysicalDeviceCooperativeMatrixPropertiesKHR 	 DATA
	vkGetPhysicalDeviceCooperativeMatrixPropertiesNV 	 DATA
	vkGetPhysicalDeviceDisplayPlaneProperties2KHR 	 DATA
	vkGetPhysicalDeviceDisplayPlanePropertiesKHR 	 DATA
	vkGetPhysicalDeviceDisplayProperties2KHR 	 DATA
	vkGetPhysicalDeviceDisplayPropertiesKHR 	 DATA
	vkGetPhysicalDeviceExternalBufferProperties 	 DATA
	vkGetPhysicalDeviceExternalBufferPropertiesKHR 	 DATA
	vkGetPhysicalDeviceExternalFenceProperties 	 DATA
	vkGetPhysicalDeviceExternalFencePropertiesKHR 	 DATA
	vkGetPhysicalDeviceExternalImageFormatPropertiesNV 	 DATA
	vkGetPhysicalDeviceExternalSemaphoreProperties 	 DATA
	vkGetPhysicalDeviceExternalSemaphorePropertiesKHR 	 DATA
	vkGetPhysicalDeviceFeatures 	 DATA
	vkGetPhysicalDeviceFeatures2 	 DATA
	vkGetPhysicalDeviceFeatures2KHR 	 DATA
	vkGetPhysicalDeviceFormatProperties 	 DATA
	vkGetPhysicalDeviceFormatProperties2 	 DATA
	vkGetPhysicalDeviceFormatProperties2KHR 	 DATA
	vkGetPhysicalDeviceFragmentShadingRatesKHR 	 DATA
	vkGetPhysicalDeviceImageFormatProperties 	 DATA
	vkGetPhysicalDeviceImageFormatProperties2 	 DATA
	vkGetPhysicalDeviceImageFormatProperties2KHR 	 DATA
	vkGetPhysicalDeviceMemoryProperties 	 DATA
	vkGetPhysicalDeviceMemoryProperties2 	 DATA
	vkGetPhysicalDeviceMemoryProperties2KHR 	 DATA
	vkGetPhysicalDeviceMultisamplePropertiesEXT 	 DATA
	vkGetPhysicalDeviceOpticalFlowImageFormatsNV 	 DATA
	vkGetPhysicalDevicePresentRectanglesKHR 	 DATA
	vkGetPhysicalDeviceProperties 	 DATA
	vkGetPhysicalDeviceProperties2 	 DATA
	vkGetPhysicalDeviceProperties2KHR 	 DATA
	vkGetPhysicalDeviceQueueFamilyPerformanceQueryPassesKHR 	 DATA
	vkGetPhysicalDeviceQueueFamilyProperties 	 DATA
	vkGetPhysicalDeviceQueueFamilyProperties2 	 DATA
	vkGetPhysicalDeviceQueueFamilyProperties2KHR 	 DATA
	vkGetPhysicalDeviceSparseImageFormatProperties 	 DATA
	vkGetPhysicalDeviceSparseImageFormatProperties2 	 DATA
	vkGetPhysicalDeviceSparseImageFormatProperties2KHR 	 DATA
	vkGetPhysicalDeviceSupportedFramebufferMixedSamplesCombinationsNV 	 DATA
	vkGetPhysicalDeviceSurfaceCapabilities2EXT 	 DATA
	vkGetPhysicalDeviceSurfaceCapabilities2KHR 	 DATA
	vkGetPhysicalDeviceSurfaceCapabilitiesKHR 	 DATA
	vkGetPhysicalDeviceSurfaceFormats2KHR 	 DATA
	vkGetPhysicalDeviceSurfaceFormatsKHR 	 DATA
	vkGetPhysicalDeviceSurfacePresentModesKHR 	 DATA
	vkGetPhysicalDeviceSurfaceSupportKHR 	 DATA
	vkGetPhysicalDeviceToolProperties 	 DATA
	vkGetPhysicalDeviceToolPropertiesEXT 	 DATA
	vkGetPhysicalDeviceVideoCapabilitiesKHR 	 DATA
	vkGetPhysicalDeviceVideoEncodeQualityLevelPropertiesKHR 	 DATA
	vkGetPhysicalDeviceVideoFormatPropertiesKHR 	 DATA
	vkGetPipelineCacheData 	 DATA
	vkGetPipelineExecutableInternalRepresentationsKHR 	 DATA
	vkGetPipelineExecutablePropertiesKHR 	 DATA
	vkGetPipelineExecutableStatisticsKHR 	 DATA
	vkGetPipelineIndirectDeviceAddressNV 	 DATA
	vkGetPipelineIndirectMemoryRequirementsNV 	 DATA
	vkGetPipelinePropertiesEXT 	 DATA
	vkGetPrivateData 	 DATA
	vkGetPrivateDataEXT 	 DATA
	vkGetQueryPoolResults 	 DATA
	vkGetQueueCheckpointData2NV 	 DATA
	vkGetQueueCheckpointDataNV 	 DATA
	vkGetRayTracingCaptureReplayShaderGroupHandlesKHR 	 DATA
	vkGetRayTracingShaderGroupHandlesKHR 	 DATA
	vkGetRayTracingShaderGroupHandlesNV 	 DATA
	vkGetRayTracingShaderGroupStackSizeKHR 	 DATA
	vkGetRefreshCycleDurationGOOGLE 	 DATA
	vkGetRenderAreaGranularity 	 DATA
	vkGetRenderingAreaGranularityKHR 	 DATA
	vkGetSamplerOpaqueCaptureDescriptorDataEXT 	 DATA
	vkGetSemaphoreCounterValue 	 DATA
	vkGetSemaphoreCounterValueKHR 	 DATA
	vkGetSemaphoreFdKHR 	 DATA
	vkGetShaderBinaryDataEXT 	 DATA
	vkGetShaderInfoAMD 	 DATA
	vkGetShaderModuleCreateInfoIdentifierEXT 	 DATA
	vkGetShaderModuleIdentifierEXT 	 DATA
	vkGetSwapchainCounterEXT 	 DATA
	vkGetSwapchainImagesKHR 	 DATA
	vkGetSwapchainStatusKHR 	 DATA
	vkGetValidationCacheDataEXT 	 DATA
	vkGetVideoSessionMemoryRequirementsKHR 	 DATA
	vkImportFenceFdKHR 	 DATA
	vkImportSemaphoreFdKHR 	 DATA
	vkInitializePerformanceApiINTEL 	 DATA
	vkInvalidateMappedMemoryRanges 	 DATA
	vkLatencySleepNV 	 DATA
	vkMapMemory 	 DATA
	vkMapMemory2KHR 	 DATA
	vkMergePipelineCaches 	 DATA
	vkMergeValidationCachesEXT 	 DATA
	vkQueueBeginDebugUtilsLabelEXT 	 DATA
	vkQueueBindSparse 	 DATA
	vkQueueEndDebugUtilsLabelEXT 	 DATA
	vkQueueInsertDebugUtilsLabelEXT 	 DATA
	vkQueueNotifyOutOfBandNV 	 DATA
	vkQueuePresentKHR 	 DATA
	vkQueueSetPerformanceConfigurationINTEL 	 DATA
	vkQueueSubmit 	 DATA
	vkQueueSubmit2 	 DATA
	vkQueueSubmit2KHR 	 DATA
	vkQueueWaitIdle 	 DATA
	vkRegisterDeviceEventEXT 	 DATA
	vkRegisterDisplayEventEXT 	 DATA
	vkReleaseDisplayEXT 	 DATA
	vkReleasePerformanceConfigurationINTEL 	 DATA
	vkReleaseProfilingLockKHR 	 DATA
	vkReleaseSwapchainImagesEXT 	 DATA
	vkResetCommandBuffer 	 DATA
	vkResetCommandPool 	 DATA
	vkResetDescriptorPool 	 DATA
	vkResetEvent 	 DATA
	vkResetFences 	 DATA
	vkResetQueryPool 	 DATA
	vkResetQueryPoolEXT 	 DATA
	vkSetDebugUtilsObjectNameEXT 	 DATA
	vkSetDebugUtilsObjectTagEXT 	 DATA
	vkSetDeviceMemoryPriorityEXT 	 DATA
	vkSetEvent 	 DATA
	vkSetHdrMetadataEXT 	 DATA
	vkSetLatencyMarkerNV 	 DATA
	vkSetLatencySleepModeNV 	 DATA
	vkSetLocalDimmingAMD 	 DATA
	vkSetPrivateData 	 DATA
	vkSetPrivateDataEXT 	 DATA
	vkSignalSemaphore 	 DATA
	vkSignalSemaphoreKHR 	 DATA
	vkSubmitDebugUtilsMessageEXT 	 DATA
	vkTransitionImageLayoutEXT 	 DATA
	vkTrimCommandPool 	 DATA
	vkTrimCommandPoolKHR 	 DATA
	vkUninitializePerformanceApiINTEL 	 DATA
	vkUnmapMemory 	 DATA
	vkUnmapMemory2KHR 	 DATA
	vkUpdateDescriptorSetWithTemplate 	 DATA
	vkUpdateDescriptorSetWithTemplateKHR 	 DATA
	vkUpdateDescriptorSets 	 DATA
	vkUpdateVideoSessionParametersKHR 	 DATA
	vkWaitForFences 	 DATA
	vkWaitForPresentKHR 	 DATA
	vkWaitSemaphores 	 DATA
	vkWaitSemaphoresKHR 	 DATA
	vkWriteAccelerationStructuresPropertiesKHR 	 DATA
	vkWriteMicromapsPropertiesEXT 	 DATA
	??$?0AEAY04$$CBDI$0A@@?$pair@$$CBV?$basic_string@DU?$char_traits@D@std@@V?$allocator@D@2@@std@@_K@std@@QEAA@AEAY04$$CBD$$QEAI@Z
	??$?0AEAY04$$CBDW4VkCompareOp@@$0A@@?$pair@$$CBV?$basic_string@DU?$char_traits@D@std@@V?$allocator@D@2@@std@@_K@std@@QEAA@AEAY04$$CBD$$QEAW4VkCompareOp@@@Z
	??$?0AEAY04$$CBDW4VkCullModeFlagBits@@$0A@@?$pair@$$CBV?$basic_string@DU?$char_traits@D@std@@V?$allocator@D@2@@std@@_K@std@@QEAA@AEAY04$$CBD$$QEAW4VkCullModeFlagBits@@@Z
	??$?0AEAY04$$CBDW4VkPolygonMode@@$0A@@?$pair@$$CBV?$basic_string@DU?$char_traits@D@std@@V?$allocator@D@2@@std@@_K@std@@QEAA@AEAY04$$CBD$$QEAW4VkPolygonMode@@@Z
	??$?0AEAY05$$CBDI$0A@@?$pair@$$CBV?$basic_string@DU?$char_traits@D@std@@V?$allocator@D@2@@std@@_K@std@@QEAA@AEAY05$$CBD$$QEAI@Z
	??$?0AEAY05$$CBDW4VkCompareOp@@$0A@@?$pair@$$CBV?$basic_string@DU?$char_traits@D@std@@V?$allocator@D@2@@std@@_K@std@@QEAA@AEAY05$$CBD$$QEAW4VkCompareOp@@@Z
	??$?0AEAY05$$CBDW4VkCullModeFlagBits@@$0A@@?$pair@$$CBV?$basic_string@DU?$char_traits@D@std@@V?$allocator@D@2@@std@@_K@std@@QEAA@AEAY05$$CBD$$QEAW4VkCullModeFlagBits@@@Z
	??$?0AEAY05$$CBDW4VkPolygonMode@@$0A@@?$pair@$$CBV?$basic_string@DU?$char_traits@D@std@@V?$allocator@D@2@@std@@_K@std@@QEAA@AEAY05$$CBD$$QEAW4VkPolygonMode@@@Z
	??$?0AEAY06$$CBDW4VkCompareOp@@$0A@@?$pair@$$CBV?$basic_string@DU?$char_traits@D@std@@V?$allocator@D@2@@std@@_K@std@@QEAA@AEAY06$$CBD$$QEAW4VkCompareOp@@@Z
	??$?0AEAY07$$CBDW4VkCompareOp@@$0A@@?$pair@$$CBV?$basic_string@DU?$char_traits@D@std@@V?$allocator@D@2@@std@@_K@std@@QEAA@AEAY07$$CBD$$QEAW4VkCompareOp@@@Z
	??$?0AEAY07$$CBDW4VkFormat@@$0A@@?$pair@$$CBV?$basic_string@DU?$char_traits@D@std@@V?$allocator@D@2@@std@@W4VkFormat@@@std@@QEAA@AEAY07$$CBD$$QEAW4VkFormat@@@Z
	??$?0AEAY08$$CBDV?$unordered_map@V?$basic_string@DU?$char_traits@D@std@@V?$allocator@D@2@@std@@_KU?$hash@V?$basic_string@DU?$char_traits@D@std@@V?$allocator@D@2@@std@@@2@U?$equal_to@V?$basic_string@DU?$char_traits@D@std@@V?$allocator@D@2@@std@@@2@V?$allocator@U?$pair@$$CBV?$basic_string@DU?$char_traits@D@std@@V?$allocator@D@2@@std@@_K@std@@@2@@std@@$0A@@?$pair@$$CBV?$basic_string@DU?$char_traits@D@std@@V?$allocator@D@2@@std@@V?$unordered_map@V?$basic_string@DU?$char_traits@D@std@@V?$allocator@D@2@@std@@_KU?$hash@V?$basic_string@DU?$char_traits@D@std@@V?$allocator@D@2@@std@@@2@U?$equal_to@V?$basic_string@DU?$char_traits@D@std@@V?$allocator@D@2@@std@@@2@V?$allocator@U?$pair@$$CBV?$basic_string@DU?$char_traits@D@std@@V?$allocator@D@2@@std@@_K@std@@@2@@2@@std@@QEAA@AEAY08$$CBD$$QEAV?$unordered_map@V?$basic_string@DU?$char_traits@D@std@@V?$allocator@D@2@@std@@_KU?$hash@V?$basic_string@DU?$char_traits@D@std@@V?$allocator@D@2@@std@@@2@U?$equal_to@V?$basic_string@DU?$char_traits@D@std@@V?$allocator@D@2@@std@@@2@V?$allocator@U?$pair@$$CBV?$basic_string@DU?$char_traits@D@std@@V?$allocator@D@2@@std@@_K@std@@@2@@1@@Z
	??$?0AEAY08$$CBDW4VkFormat@@$0A@@?$pair@$$CBV?$basic_string@DU?$char_traits@D@std@@V?$allocator@D@2@@std@@W4VkFormat@@@std@@QEAA@AEAY08$$CBD$$QEAW4VkFormat@@@Z
	??$?0AEAY09$$CBDV?$unordered_map@V?$basic_string@DU?$char_traits@D@std@@V?$allocator@D@2@@std@@_KU?$hash@V?$basic_string@DU?$char_traits@D@std@@V?$allocator@D@2@@std@@@2@U?$equal_to@V?$basic_string@DU?$char_traits@D@std@@V?$allocator@D@2@@std@@@2@V?$allocator@U?$pair@$$CBV?$basic_string@DU?$char_traits@D@std@@V?$allocator@D@2@@std@@_K@std@@@2@@std@@$0A@@?$pair@$$CBV?$basic_string@DU?$char_traits@D@std@@V?$allocator@D@2@@std@@V?$unordered_map@V?$basic_string@DU?$char_traits@D@std@@V?$allocator@D@2@@std@@_KU?$hash@V?$basic_string@DU?$char_traits@D@std@@V?$allocator@D@2@@std@@@2@U?$equal_to@V?$basic_string@DU?$char_traits@D@std@@V?$allocator@D@2@@std@@@2@V?$allocator@U?$pair@$$CBV?$basic_string@DU?$char_traits@D@std@@V?$allocator@D@2@@std@@_K@std@@@2@@2@@std@@QEAA@AEAY09$$CBD$$QEAV?$unordered_map@V?$basic_string@DU?$char_traits@D@std@@V?$allocator@D@2@@std@@_KU?$hash@V?$basic_string@DU?$char_traits@D@std@@V?$allocator@D@2@@std@@@2@U?$equal_to@V?$basic_string@DU?$char_traits@D@std@@V?$allocator@D@2@@std@@@2@V?$allocator@U?$pair@$$CBV?$basic_string@DU?$char_traits@D@std@@V?$allocator@D@2@@std@@_K@std@@@2@@1@@Z
	??$?0AEAY09$$CBDW4VkCompareOp@@$0A@@?$pair@$$CBV?$basic_string@DU?$char_traits@D@std@@V?$allocator@D@2@@std@@_K@std@@QEAA@AEAY09$$CBD$$QEAW4VkCompareOp@@@Z
	??$?0AEAY09$$CBDW4VkFormat@@$0A@@?$pair@$$CBV?$basic_string@DU?$char_traits@D@std@@V?$allocator@D@2@@std@@W4VkFormat@@@std@@QEAA@AEAY09$$CBD$$QEAW4VkFormat@@@Z
	??$?0AEAY09$$CBDW4VkFrontFace@@$0A@@?$pair@$$CBV?$basic_string@DU?$char_traits@D@std@@V?$allocator@D@2@@std@@_K@std@@QEAA@AEAY09$$CBD$$QEAW4VkFrontFace@@@Z
	??$?0AEAY09$$CBDW4VkPrimitiveTopology@@$0A@@?$pair@$$CBV?$basic_string@DU?$char_traits@D@std@@V?$allocator@D@2@@std@@_K@std@@QEAA@AEAY09$$CBD$$QEAW4VkPrimitiveTopology@@@Z
	??$?0AEAY0BA@$$CBDW4VkFormat@@$0A@@?$pair@$$CBV?$basic_string@DU?$char_traits@D@std@@V?$allocator@D@2@@std@@W4VkFormat@@@std@@QEAA@AEAY0BA@$$CBD$$QEAW4VkFormat@@@Z
	??$?0AEAY0BB@$$CBDW4VkCompareOp@@$0A@@?$pair@$$CBV?$basic_string@DU?$char_traits@D@std@@V?$allocator@D@2@@std@@_K@std@@QEAA@AEAY0BB@$$CBD$$QEAW4VkCompareOp@@@Z
	??$?0AEAY0BB@$$CBDW4VkFormat@@$0A@@?$pair@$$CBV?$basic_string@DU?$char_traits@D@std@@V?$allocator@D@2@@std@@W4VkFormat@@@std@@QEAA@AEAY0BB@$$CBD$$QEAW4VkFormat@@@Z
	??$?0AEAY0BC@$$CBDW4VkFormat@@$0A@@?$pair@$$CBV?$basic_string@DU?$char_traits@D@std@@V?$allocator@D@2@@std@@W4VkFormat@@@std@@QEAA@AEAY0BC@$$CBD$$QEAW4VkFormat@@@Z
	??$?0AEAY0BC@$$CBDW4VkFrontFace@@$0A@@?$pair@$$CBV?$basic_string@DU?$char_traits@D@std@@V?$allocator@D@2@@std@@_K@std@@QEAA@AEAY0BC@$$CBD$$QEAW4VkFrontFace@@@Z
	??$?0AEAY0BD@$$CBDW4VkFormat@@$0A@@?$pair@$$CBV?$basic_string@DU?$char_traits@D@std@@V?$allocator@D@2@@std@@W4VkFormat@@@std@@QEAA@AEAY0BD@$$CBD$$QEAW4VkFormat@@@Z
	??$?0AEAY0BE@$$CBDW4VkFormat@@$0A@@?$pair@$$CBV?$basic_string@DU?$char_traits@D@std@@V?$allocator@D@2@@std@@W4VkFormat@@@std@@QEAA@AEAY0BE@$$CBD$$QEAW4VkFormat@@@Z
	??$?0AEAY0BF@$$CBDW4VkFormat@@$0A@@?$pair@$$CBV?$basic_string@DU?$char_traits@D@std@@V?$allocator@D@2@@std@@W4VkFormat@@@std@@QEAA@AEAY0BF@$$CBD$$QEAW4VkFormat@@@Z
	??$?0AEAY0BG@$$CBDW4VkFormat@@$0A@@?$pair@$$CBV?$basic_string@DU?$char_traits@D@std@@V?$allocator@D@2@@std@@W4VkFormat@@@std@@QEAA@AEAY0BG@$$CBD$$QEAW4VkFormat@@@Z
	??$?0AEAY0BH@$$CBDW4VkFormat@@$0A@@?$pair@$$CBV?$basic_string@DU?$char_traits@D@std@@V?$allocator@D@2@@std@@W4VkFormat@@@std@@QEAA@AEAY0BH@$$CBD$$QEAW4VkFormat@@@Z
	??$?0AEAY0BI@$$CBDW4VkFormat@@$0A@@?$pair@$$CBV?$basic_string@DU?$char_traits@D@std@@V?$allocator@D@2@@std@@W4VkFormat@@@std@@QEAA@AEAY0BI@$$CBD$$QEAW4VkFormat@@@Z
	??$?0AEAY0BJ@$$CBDW4VkFormat@@$0A@@?$pair@$$CBV?$basic_string@DU?$char_traits@D@std@@V?$allocator@D@2@@std@@W4VkFormat@@@std@@QEAA@AEAY0BJ@$$CBD$$QEAW4VkFormat@@@Z
	??$?0AEAY0BJ@$$CBDW4VkPrimitiveTopology@@$0A@@?$pair@$$CBV?$basic_string@DU?$char_traits@D@std@@V?$allocator@D@2@@std@@_K@std@@QEAA@AEAY0BJ@$$CBD$$QEAW4VkPrimitiveTopology@@@Z
	??$?0AEAY0BK@$$CBDW4VkFormat@@$0A@@?$pair@$$CBV?$basic_string@DU?$char_traits@D@std@@V?$allocator@D@2@@std@@W4VkFormat@@@std@@QEAA@AEAY0BK@$$CBD$$QEAW4VkFormat@@@Z
	??$?0AEAY0BK@$$CBDW4VkPrimitiveTopology@@$0A@@?$pair@$$CBV?$basic_string@DU?$char_traits@D@std@@V?$allocator@D@2@@std@@_K@std@@QEAA@AEAY0BK@$$CBD$$QEAW4VkPrimitiveTopology@@@Z
	??$?0AEAY0BL@$$CBDW4VkFormat@@$0A@@?$pair@$$CBV?$basic_string@DU?$char_traits@D@std@@V?$allocator@D@2@@std@@W4VkFormat@@@std@@QEAA@AEAY0BL@$$CBD$$QEAW4VkFormat@@@Z
	??$?0AEAY0BM@$$CBDW4VkFormat@@$0A@@?$pair@$$CBV?$basic_string@DU?$char_traits@D@std@@V?$allocator@D@2@@std@@W4VkFormat@@@std@@QEAA@AEAY0BM@$$CBD$$QEAW4VkFormat@@@Z
	??$?0AEAY0BN@$$CBDW4VkFormat@@$0A@@?$pair@$$CBV?$basic_string@DU?$char_traits@D@std@@V?$allocator@D@2@@std@@W4VkFormat@@@std@@QEAA@AEAY0BN@$$CBD$$QEAW4VkFormat@@@Z
	??$?0AEAY0BN@$$CBDW4VkPrimitiveTopology@@$0A@@?$pair@$$CBV?$basic_string@DU?$char_traits@D@std@@V?$allocator@D@2@@std@@_K@std@@QEAA@AEAY0BN@$$CBD$$QEAW4VkPrimitiveTopology@@@Z
	??$?0AEAY0BO@$$CBDW4VkFormat@@$0A@@?$pair@$$CBV?$basic_string@DU?$char_traits@D@std@@V?$allocator@D@2@@std@@W4VkFormat@@@std@@QEAA@AEAY0BO@$$CBD$$QEAW4VkFormat@@@Z
	??$?0AEAY0BO@$$CBDW4VkPrimitiveTopology@@$0A@@?$pair@$$CBV?$basic_string@DU?$char_traits@D@std@@V?$allocator@D@2@@std@@_K@std@@QEAA@AEAY0BO@$$CBD$$QEAW4VkPrimitiveTopology@@@Z
	??$?0AEAY0BP@$$CBDW4VkFormat@@$0A@@?$pair@$$CBV?$basic_string@DU?$char_traits@D@std@@V?$allocator@D@2@@std@@W4VkFormat@@@std@@QEAA@AEAY0BP@$$CBD$$QEAW4VkFormat@@@Z
	??$?0AEAY0CA@$$CBDW4VkFormat@@$0A@@?$pair@$$CBV?$basic_string@DU?$char_traits@D@std@@V?$allocator@D@2@@std@@W4VkFormat@@@std@@QEAA@AEAY0CA@$$CBD$$QEAW4VkFormat@@@Z
	??$?0AEAY0CB@$$CBDW4VkFormat@@$0A@@?$pair@$$CBV?$basic_string@DU?$char_traits@D@std@@V?$allocator@D@2@@std@@W4VkFormat@@@std@@QEAA@AEAY0CB@$$CBD$$QEAW4VkFormat@@@Z
	??$?0AEAY0CC@$$CBDW4VkFormat@@$0A@@?$pair@$$CBV?$basic_string@DU?$char_traits@D@std@@V?$allocator@D@2@@std@@W4VkFormat@@@std@@QEAA@AEAY0CC@$$CBD$$QEAW4VkFormat@@@Z
	??$?0AEAY0CD@$$CBDW4VkFormat@@$0A@@?$pair@$$CBV?$basic_string@DU?$char_traits@D@std@@V?$allocator@D@2@@std@@W4VkFormat@@@std@@QEAA@AEAY0CD@$$CBD$$QEAW4VkFormat@@@Z
	??$?0AEAY0CE@$$CBDW4VkFormat@@$0A@@?$pair@$$CBV?$basic_string@DU?$char_traits@D@std@@V?$allocator@D@2@@std@@W4VkFormat@@@std@@QEAA@AEAY0CE@$$CBD$$QEAW4VkFormat@@@Z
	??$?0AEAY0CF@$$CBDW4VkFormat@@$0A@@?$pair@$$CBV?$basic_string@DU?$char_traits@D@std@@V?$allocator@D@2@@std@@W4VkFormat@@@std@@QEAA@AEAY0CF@$$CBD$$QEAW4VkFormat@@@Z
	??$?0AEAY0CG@$$CBDW4VkFormat@@$0A@@?$pair@$$CBV?$basic_string@DU?$char_traits@D@std@@V?$allocator@D@2@@std@@W4VkFormat@@@std@@QEAA@AEAY0CG@$$CBD$$QEAW4VkFormat@@@Z
	??$?0AEAY0CH@$$CBDW4VkFormat@@$0A@@?$pair@$$CBV?$basic_string@DU?$char_traits@D@std@@V?$allocator@D@2@@std@@W4VkFormat@@@std@@QEAA@AEAY0CH@$$CBD$$QEAW4VkFormat@@@Z
	??$?0AEAY0CK@$$CBDW4VkFormat@@$0A@@?$pair@$$CBV?$basic_string@DU?$char_traits@D@std@@V?$allocator@D@2@@std@@W4VkFormat@@@std@@QEAA@AEAY0CK@$$CBD$$QEAW4VkFormat@@@Z
	??$?0AEAY0CL@$$CBDW4VkFormat@@$0A@@?$pair@$$CBV?$basic_string@DU?$char_traits@D@std@@V?$allocator@D@2@@std@@W4VkFormat@@@std@@QEAA@AEAY0CL@$$CBD$$QEAW4VkFormat@@@Z
	??$?0AEAY0CN@$$CBDW4VkFormat@@$0A@@?$pair@$$CBV?$basic_string@DU?$char_traits@D@std@@V?$allocator@D@2@@std@@W4VkFormat@@@std@@QEAA@AEAY0CN@$$CBD$$QEAW4VkFormat@@@Z
	??$?0AEAY0DB@$$CBDW4VkFormat@@$0A@@?$pair@$$CBV?$basic_string@DU?$char_traits@D@std@@V?$allocator@D@2@@std@@W4VkFormat@@@std@@QEAA@AEAY0DB@$$CBD$$QEAW4VkFormat@@@Z
	??$?0AEAY0DE@$$CBDW4VkFormat@@$0A@@?$pair@$$CBV?$basic_string@DU?$char_traits@D@std@@V?$allocator@D@2@@std@@W4VkFormat@@@std@@QEAA@AEAY0DE@$$CBD$$QEAW4VkFormat@@@Z
	??$?0AEAY0DF@$$CBDW4VkFormat@@$0A@@?$pair@$$CBV?$basic_string@DU?$char_traits@D@std@@V?$allocator@D@2@@std@@W4VkFormat@@@std@@QEAA@AEAY0DF@$$CBD$$QEAW4VkFormat@@@Z
	??$?0AEAY0L@$$CBDV?$unordered_map@V?$basic_string@DU?$char_traits@D@std@@V?$allocator@D@2@@std@@_KU?$hash@V?$basic_string@DU?$char_traits@D@std@@V?$allocator@D@2@@std@@@2@U?$equal_to@V?$basic_string@DU?$char_traits@D@std@@V?$allocator@D@2@@std@@@2@V?$allocator@U?$pair@$$CBV?$basic_string@DU?$char_traits@D@std@@V?$allocator@D@2@@std@@_K@std@@@2@@std@@$0A@@?$pair@$$CBV?$basic_string@DU?$char_traits@D@std@@V?$allocator@D@2@@std@@V?$unordered_map@V?$basic_string@DU?$char_traits@D@std@@V?$allocator@D@2@@std@@_KU?$hash@V?$basic_string@DU?$char_traits@D@std@@V?$allocator@D@2@@std@@@2@U?$equal_to@V?$basic_string@DU?$char_traits@D@std@@V?$allocator@D@2@@std@@@2@V?$allocator@U?$pair@$$CBV?$basic_string@DU?$char_traits@D@std@@V?$allocator@D@2@@std@@_K@std@@@2@@2@@std@@QEAA@AEAY0L@$$CBD$$QEAV?$unordered_map@V?$basic_string@DU?$char_traits@D@std@@V?$allocator@D@2@@std@@_KU?$hash@V?$basic_string@DU?$char_traits@D@std@@V?$allocator@D@2@@std@@@2@U?$equal_to@V?$basic_string@DU?$char_traits@D@std@@V?$allocator@D@2@@std@@@2@V?$allocator@U?$pair@$$CBV?$basic_string@DU?$char_traits@D@std@@V?$allocator@D@2@@std@@_K@std@@@2@@1@@Z
	??$?0AEAY0L@$$CBDW4VkFormat@@$0A@@?$pair@$$CBV?$basic_string@DU?$char_traits@D@std@@V?$allocator@D@2@@std@@W4VkFormat@@@std@@QEAA@AEAY0L@$$CBD$$QEAW4VkFormat@@@Z
	??$?0AEAY0L@$$CBDW4VkPrimitiveTopology@@$0A@@?$pair@$$CBV?$basic_string@DU?$char_traits@D@std@@V?$allocator@D@2@@std@@_K@std@@QEAA@AEAY0L@$$CBD$$QEAW4VkPrimitiveTopology@@@Z
	??$?0AEAY0M@$$CBDV?$unordered_map@V?$basic_string@DU?$char_traits@D@std@@V?$allocator@D@2@@std@@_KU?$hash@V?$basic_string@DU?$char_traits@D@std@@V?$allocator@D@2@@std@@@2@U?$equal_to@V?$basic_string@DU?$char_traits@D@std@@V?$allocator@D@2@@std@@@2@V?$allocator@U?$pair@$$CBV?$basic_string@DU?$char_traits@D@std@@V?$allocator@D@2@@std@@_K@std@@@2@@std@@$0A@@?$pair@$$CBV?$basic_string@DU?$char_traits@D@std@@V?$allocator@D@2@@std@@V?$unordered_map@V?$basic_string@DU?$char_traits@D@std@@V?$allocator@D@2@@std@@_KU?$hash@V?$basic_string@DU?$char_traits@D@std@@V?$allocator@D@2@@std@@@2@U?$equal_to@V?$basic_string@DU?$char_traits@D@std@@V?$allocator@D@2@@std@@@2@V?$allocator@U?$pair@$$CBV?$basic_string@DU?$char_traits@D@std@@V?$allocator@D@2@@std@@_K@std@@@2@@2@@std@@QEAA@AEAY0M@$$CBD$$QEAV?$unordered_map@V?$basic_string@DU?$char_traits@D@std@@V?$allocator@D@2@@std@@_KU?$hash@V?$basic_string@DU?$char_traits@D@std@@V?$allocator@D@2@@std@@@2@U?$equal_to@V?$basic_string@DU?$char_traits@D@std@@V?$allocator@D@2@@std@@@2@V?$allocator@U?$pair@$$CBV?$basic_string@DU?$char_traits@D@std@@V?$allocator@D@2@@std@@_K@std@@@2@@1@@Z
	??$?0AEAY0M@$$CBDW4VkFormat@@$0A@@?$pair@$$CBV?$basic_string@DU?$char_traits@D@std@@V?$allocator@D@2@@std@@W4VkFormat@@@std@@QEAA@AEAY0M@$$CBD$$QEAW4VkFormat@@@Z
	??$?0AEAY0N@$$CBDV?$unordered_map@V?$basic_string@DU?$char_traits@D@std@@V?$allocator@D@2@@std@@_KU?$hash@V?$basic_string@DU?$char_traits@D@std@@V?$allocator@D@2@@std@@@2@U?$equal_to@V?$basic_string@DU?$char_traits@D@std@@V?$allocator@D@2@@std@@@2@V?$allocator@U?$pair@$$CBV?$basic_string@DU?$char_traits@D@std@@V?$allocator@D@2@@std@@_K@std@@@2@@std@@$0A@@?$pair@$$CBV?$basic_string@DU?$char_traits@D@std@@V?$allocator@D@2@@std@@V?$unordered_map@V?$basic_string@DU?$char_traits@D@std@@V?$allocator@D@2@@std@@_KU?$hash@V?$basic_string@DU?$char_traits@D@std@@V?$allocator@D@2@@std@@@2@U?$equal_to@V?$basic_string@DU?$char_traits@D@std@@V?$allocator@D@2@@std@@@2@V?$allocator@U?$pair@$$CBV?$basic_string@DU?$char_traits@D@std@@V?$allocator@D@2@@std@@_K@std@@@2@@2@@std@@QEAA@AEAY0N@$$CBD$$QEAV?$unordered_map@V?$basic_string@DU?$char_traits@D@std@@V?$allocator@D@2@@std@@_KU?$hash@V?$basic_string@DU?$char_traits@D@std@@V?$allocator@D@2@@std@@@2@U?$equal_to@V?$basic_string@DU?$char_traits@D@std@@V?$allocator@D@2@@std@@@2@V?$allocator@U?$pair@$$CBV?$basic_string@DU?$char_traits@D@std@@V?$allocator@D@2@@std@@_K@std@@@2@@1@@Z
	??$?0AEAY0N@$$CBDW4VkFormat@@$0A@@?$pair@$$CBV?$basic_string@DU?$char_traits@D@std@@V?$allocator@D@2@@std@@W4VkFormat@@@std@@QEAA@AEAY0N@$$CBD$$QEAW4VkFormat@@@Z
	??$?0AEAY0N@$$CBDW4VkPrimitiveTopology@@$0A@@?$pair@$$CBV?$basic_string@DU?$char_traits@D@std@@V?$allocator@D@2@@std@@_K@std@@QEAA@AEAY0N@$$CBD$$QEAW4VkPrimitiveTopology@@@Z
	??$?0AEAY0O@$$CBDW4VkCompareOp@@$0A@@?$pair@$$CBV?$basic_string@DU?$char_traits@D@std@@V?$allocator@D@2@@std@@_K@std@@QEAA@AEAY0O@$$CBD$$QEAW4VkCompareOp@@@Z
	??$?0AEAY0O@$$CBDW4VkFormat@@$0A@@?$pair@$$CBV?$basic_string@DU?$char_traits@D@std@@V?$allocator@D@2@@std@@W4VkFormat@@@std@@QEAA@AEAY0O@$$CBD$$QEAW4VkFormat@@@Z
	??$?0AEAY0O@$$CBDW4VkPrimitiveTopology@@$0A@@?$pair@$$CBV?$basic_string@DU?$char_traits@D@std@@V?$allocator@D@2@@std@@_K@std@@QEAA@AEAY0O@$$CBD$$QEAW4VkPrimitiveTopology@@@Z
	??$?0AEAY0P@$$CBDW4VkCullModeFlagBits@@$0A@@?$pair@$$CBV?$basic_string@DU?$char_traits@D@std@@V?$allocator@D@2@@std@@_K@std@@QEAA@AEAY0P@$$CBD$$QEAW4VkCullModeFlagBits@@@Z
	??$?0AEAY0P@$$CBDW4VkFormat@@$0A@@?$pair@$$CBV?$basic_string@DU?$char_traits@D@std@@V?$allocator@D@2@@std@@W4VkFormat@@@std@@QEAA@AEAY0P@$$CBD$$QEAW4VkFormat@@@Z
	??$?0AEAY0P@$$CBDW4VkPrimitiveTopology@@$0A@@?$pair@$$CBV?$basic_string@DU?$char_traits@D@std@@V?$allocator@D@2@@std@@_K@std@@QEAA@AEAY0P@$$CBD$$QEAW4VkPrimitiveTopology@@@Z
	??$?0AEBU?$pair@$$CBV?$basic_string@DU?$char_traits@D@std@@V?$allocator@D@2@@std@@W4VkFormat@@@std@@@?$_List_node_emplace_op2@V?$allocator@U?$_List_node@U?$pair@$$CBV?$basic_string@DU?$char_traits@D@std@@V?$allocator@D@2@@std@@W4VkFormat@@@std@@PEAX@std@@@std@@@std@@QEAA@AEAV?$allocator@U?$_List_node@U?$pair@$$CBV?$basic_string@DU?$char_traits@D@std@@V?$allocator@D@2@@std@@W4VkFormat@@@std@@PEAX@std@@@1@AEBU?$pair@$$CBV?$basic_string@DU?$char_traits@D@std@@V?$allocator@D@2@@std@@W4VkFormat@@@1@@Z
	??$?0AEBU?$pair@$$CBV?$basic_string@DU?$char_traits@D@std@@V?$allocator@D@2@@std@@W4glslang_stage_t@@@std@@@?$_Tree_temp_node@V?$allocator@U?$_Tree_node@U?$pair@$$CBV?$basic_string@DU?$char_traits@D@std@@V?$allocator@D@2@@std@@W4glslang_stage_t@@@std@@PEAX@std@@@std@@@std@@QEAA@AEAV?$allocator@U?$_Tree_node@U?$pair@$$CBV?$basic_string@DU?$char_traits@D@std@@V?$allocator@D@2@@std@@W4glslang_stage_t@@@std@@PEAX@std@@@1@PEAU?$_Tree_node@U?$pair@$$CBV?$basic_string@DU?$char_traits@D@std@@V?$allocator@D@2@@std@@W4glslang_stage_t@@@std@@PEAX@1@AEBU?$pair@$$CBV?$basic_string@DU?$char_traits@D@std@@V?$allocator@D@2@@std@@W4glslang_stage_t@@@1@@Z
	??$?0AEBU?$pair@$$CBV?$basic_string@DU?$char_traits@D@std@@V?$allocator@D@2@@std@@_K@std@@@?$_List_node_emplace_op2@V?$allocator@U?$_List_node@U?$pair@$$CBV?$basic_string@DU?$char_traits@D@std@@V?$allocator@D@2@@std@@_K@std@@PEAX@std@@@std@@@std@@QEAA@AEAV?$allocator@U?$_List_node@U?$pair@$$CBV?$basic_string@DU?$char_traits@D@std@@V?$allocator@D@2@@std@@_K@std@@PEAX@std@@@1@AEBU?$pair@$$CBV?$basic_string@DU?$char_traits@D@std@@V?$allocator@D@2@@std@@_K@1@@Z
	??$?0V?$allocator@U?$_List_node@U?$pair@$$CBV?$basic_string@DU?$char_traits@D@std@@V?$allocator@D@2@@std@@_K@std@@PEAX@std@@@std@@@?$_Hash@V?$_Umap_traits@V?$basic_string@DU?$char_traits@D@std@@V?$allocator@D@2@@std@@_KV?$_Uhash_compare@V?$basic_string@DU?$char_traits@D@std@@V?$allocator@D@2@@std@@U?$hash@V?$basic_string@DU?$char_traits@D@std@@V?$allocator@D@2@@std@@@2@U?$equal_to@V?$basic_string@DU?$char_traits@D@std@@V?$allocator@D@2@@std@@@2@@2@V?$allocator@U?$pair@$$CBV?$basic_string@DU?$char_traits@D@std@@V?$allocator@D@2@@std@@_K@std@@@2@$0A@@std@@@std@@IEAA@AEBV01@AEBV?$allocator@U?$_List_node@U?$pair@$$CBV?$basic_string@DU?$char_traits@D@std@@V?$allocator@D@2@@std@@_K@std@@PEAX@std@@@1@@Z
	??$?6U?$char_traits@D@std@@@std@@YAAEAV?$basic_ostream@DU?$char_traits@D@std@@@0@AEAV10@D@Z
	??$?6U?$char_traits@D@std@@@std@@YAAEAV?$basic_ostream@DU?$char_traits@D@std@@@0@AEAV10@PEBD@Z
	??$?8DU?$char_traits@D@std@@V?$allocator@D@1@@std@@YA_NAEBV?$basic_string@DU?$char_traits@D@std@@V?$allocator@D@2@@0@QEBD@Z
	??$?RD@?$_Arg_formatter@V?$back_insert_iterator@V?$_Fmt_buffer@D@std@@@std@@D@__p2286@std@@QEAA?AV?$back_insert_iterator@V?$_Fmt_buffer@D@std@@@2@D@Z
	??$?RUTaskSummary@TFProfObserver@tf@@@<lambda_3>@?0??dump_tsum@Summary@TFProfObserver@tf@@QEBAXAEAV?$basic_ostream@DU?$char_traits@D@std@@@std@@@Z@QEBA?A?<auto>@@AEBUTaskSummary@34@@Z
	??$?RUWorkerSummary@TFProfObserver@tf@@@<lambda_4>@?0??dump_wsum@Summary@TFProfObserver@tf@@QEBAXAEAV?$basic_ostream@DU?$char_traits@D@std@@@std@@@Z@QEBA?A?<auto>@@AEBUWorkerSummary@34@@Z
	??$Allocate@AEA_N@VmaAllocationObjectAllocator@@QEAAPEAUVmaAllocation_T@@AEA_N@Z
	??$Allocate@AEB_N@VmaAllocationObjectAllocator@@QEAAPEAUVmaAllocation_T@@AEB_N@Z
	??$UnsafeFetch@VBuffer@Gfx@Component@LoFi@@@GfxContext@LoFi@@QEAAPEAVBuffer@Gfx@Component@1@W4entity@entt@@@Z
	??$_Assign_counted_range@PEAU?$dense_map_node@V?$basic_string@DU?$char_traits@D@std@@V?$allocator@D@2@@std@@UPushConstantMemberInfo@Gfx@Component@LoFi@@@internal@entt@@@?$vector@U?$dense_map_node@V?$basic_string@DU?$char_traits@D@std@@V?$allocator@D@2@@std@@UPushConstantMemberInfo@Gfx@Component@LoFi@@@internal@entt@@V?$allocator@U?$dense_map_node@V?$basic_string@DU?$char_traits@D@std@@V?$allocator@D@2@@std@@UPushConstantMemberInfo@Gfx@Component@LoFi@@@internal@entt@@@std@@@std@@AEAAXPEAU?$dense_map_node@V?$basic_string@DU?$char_traits@D@std@@V?$allocator@D@2@@std@@UPushConstantMemberInfo@Gfx@Component@LoFi@@@internal@entt@@_K@Z
	??$_Construct@V?$_Deque_unchecked_const_iterator@V?$_Deque_val@U?$_Deque_simple_types@V?$time_point@Usteady_clock@chrono@std@@V?$duration@_JU?$ratio@$00$0DLJKMKAA@@std@@@23@@chrono@std@@@std@@@std@@@std@@V12@@?$deque@V?$time_point@Usteady_clock@chrono@std@@V?$duration@_JU?$ratio@$00$0DLJKMKAA@@std@@@23@@chrono@std@@V?$allocator@V?$time_point@Usteady_clock@chrono@std@@V?$duration@_JU?$ratio@$00$0DLJKMKAA@@std@@@23@@chrono@std@@@3@@std@@AEAAXV?$_Deque_unchecked_const_iterator@V?$_Deque_val@U?$_Deque_simple_types@V?$time_point@Usteady_clock@chrono@std@@V?$duration@_JU?$ratio@$00$0DLJKMKAA@@std@@@23@@chrono@std@@@std@@@std@@@1@V21@@Z
	??$_Construct_in_place@U?$_Task_impl@E@details@Concurrency@@AEAPEAV_CancellationTokenState@23@AEAUscheduler_ptr@3@@std@@YAXAEAU?$_Task_impl@E@details@Concurrency@@AEAPEAV_CancellationTokenState@23@AEAUscheduler_ptr@3@@Z
	??$_Construct_n@$$V@?$vector@VWorker@tf@@V?$allocator@VWorker@tf@@@std@@@std@@AEAAX_K@Z
	??$_Destroy_range@V?$allocator@U?$dense_map_node@V?$basic_string@DU?$char_traits@D@std@@V?$allocator@D@2@@std@@UPushConstantMemberInfo@Gfx@Component@LoFi@@@internal@entt@@@std@@@std@@YAXPEAU?$dense_map_node@V?$basic_string@DU?$char_traits@D@std@@V?$allocator@D@2@@std@@UPushConstantMemberInfo@Gfx@Component@LoFi@@@internal@entt@@QEAU123@AEAV?$allocator@U?$dense_map_node@V?$basic_string@DU?$char_traits@D@std@@V?$allocator@D@2@@std@@UPushConstantMemberInfo@Gfx@Component@LoFi@@@internal@entt@@@0@@Z
	??$_Destroy_range@V?$allocator@USegment@tf@@@std@@@std@@YAXPEAUSegment@tf@@QEAU12@AEAV?$allocator@USegment@tf@@@0@@Z
	??$_Destroy_range@V?$allocator@V?$basic_string@DU?$char_traits@D@std@@V?$allocator@D@2@@std@@@std@@@std@@YAXPEAV?$basic_string@DU?$char_traits@D@std@@V?$allocator@D@2@@0@QEAV10@AEAV?$allocator@V?$basic_string@DU?$char_traits@D@std@@V?$allocator@D@2@@std@@@0@@Z
	??$_Destroy_range@V?$allocator@V?$stack@V?$time_point@Usteady_clock@chrono@std@@V?$duration@_JU?$ratio@$00$0DLJKMKAA@@std@@@23@@chrono@std@@V?$deque@V?$time_point@Usteady_clock@chrono@std@@V?$duration@_JU?$ratio@$00$0DLJKMKAA@@std@@@23@@chrono@std@@V?$allocator@V?$time_point@Usteady_clock@chrono@std@@V?$duration@_JU?$ratio@$00$0DLJKMKAA@@std@@@23@@chrono@std@@@3@@3@@std@@@std@@@std@@YAXPEAV?$stack@V?$time_point@Usteady_clock@chrono@std@@V?$duration@_JU?$ratio@$00$0DLJKMKAA@@std@@@23@@chrono@std@@V?$deque@V?$time_point@Usteady_clock@chrono@std@@V?$duration@_JU?$ratio@$00$0DLJKMKAA@@std@@@23@@chrono@std@@V?$allocator@V?$time_point@Usteady_clock@chrono@std@@V?$duration@_JU?$ratio@$00$0DLJKMKAA@@std@@@23@@chrono@std@@@3@@3@@0@QEAV10@AEAV?$allocator@V?$stack@V?$time_point@Usteady_clock@chrono@std@@V?$duration@_JU?$ratio@$00$0DLJKMKAA@@std@@@23@@chrono@std@@V?$deque@V?$time_point@Usteady_clock@chrono@std@@V?$duration@_JU?$ratio@$00$0DLJKMKAA@@std@@@23@@chrono@std@@V?$allocator@V?$time_point@Usteady_clock@chrono@std@@V?$duration@_JU?$ratio@$00$0DLJKMKAA@@std@@@23@@chrono@std@@@3@@3@@std@@@0@@Z
	??$_Emplace_one_at_back@V?$_String_view_iterator@U?$char_traits@D@std@@@std@@V12@@?$vector@V?$basic_string@DU?$char_traits@D@std@@V?$allocator@D@2@@std@@V?$allocator@V?$basic_string@DU?$char_traits@D@std@@V?$allocator@D@2@@std@@@2@@std@@AEAAAEAV?$basic_string@DU?$char_traits@D@std@@V?$allocator@D@2@@1@$$QEAV?$_String_view_iterator@U?$char_traits@D@std@@@1@0@Z
	??$_Emplace_reallocate@$$V@?$vector@UGenInstanceData@LoFi@@V?$allocator@UGenInstanceData@LoFi@@@std@@@std@@AEAAPEAUGenInstanceData@LoFi@@QEAU23@@Z
	??$_Emplace_reallocate@AEAU?$vec@$01G$0A@@glm@@@?$vector@U?$vec@$01G$0A@@glm@@V?$allocator@U?$vec@$01G$0A@@glm@@@std@@@std@@AEAAPEAU?$vec@$01G$0A@@glm@@QEAU23@AEAU23@@Z
	??$_Emplace_reallocate@AEAU?$vec@$01M$0A@@glm@@U12@@?$vector@UGenDrawVertexData@LoFi@@V?$allocator@UGenDrawVertexData@LoFi@@@std@@@std@@AEAAPEAUGenDrawVertexData@LoFi@@QEAU23@AEAU?$vec@$01M$0A@@glm@@$$QEAU45@@Z
	??$_Emplace_reallocate@AEAU?$vec@$03G$0A@@glm@@@?$vector@U?$vec@$03G$0A@@glm@@V?$allocator@U?$vec@$03G$0A@@glm@@@std@@@std@@AEAAPEAU?$vec@$03G$0A@@glm@@QEAU23@AEAU23@@Z
	??$_Emplace_reallocate@AEAUStrockTypeParameter@LoFi@@@?$vector@UStrockTypeParameter@LoFi@@V?$allocator@UStrockTypeParameter@LoFi@@@std@@@std@@AEAAPEAUStrockTypeParameter@LoFi@@QEAU23@AEAU23@@Z
	??$_Emplace_reallocate@AEAV?$basic_string_view@DU?$char_traits@D@std@@@std@@W4glslang_stage_t@@@?$vector@U?$pair@V?$basic_string_view@DU?$char_traits@D@std@@@std@@W4glslang_stage_t@@@std@@V?$allocator@U?$pair@V?$basic_string_view@DU?$char_traits@D@std@@@std@@W4glslang_stage_t@@@std@@@2@@std@@AEAAPEAU?$pair@V?$basic_string_view@DU?$char_traits@D@std@@@std@@W4glslang_stage_t@@@1@QEAU21@AEAV?$basic_string_view@DU?$char_traits@D@std@@@1@$$QEAW4glslang_stage_t@@@Z
	??$_Emplace_reallocate@AEA_KAEBUpiecewise_construct_t@std@@V?$tuple@$$QEAW4glslang_stage_t@@@2@V?$tuple@$$V@2@@?$vector@U?$dense_map_node@W4glslang_stage_t@@U?$pair@V?$vector@IV?$allocator@I@std@@@std@@PEAUVkShaderModule_T@@@std@@@internal@entt@@V?$allocator@U?$dense_map_node@W4glslang_stage_t@@U?$pair@V?$vector@IV?$allocator@I@std@@@std@@PEAUVkShaderModule_T@@@std@@@internal@entt@@@std@@@std@@AEAAPEAU?$dense_map_node@W4glslang_stage_t@@U?$pair@V?$vector@IV?$allocator@I@std@@@std@@PEAUVkShaderModule_T@@@std@@@internal@entt@@QEAU234@AEA_KAEBUpiecewise_construct_t@1@$$QEAV?$tuple@$$QEAW4glslang_stage_t@@@1@$$QEAV?$tuple@$$V@1@@Z
	??$_Emplace_reallocate@AEA_KAEBUpiecewise_construct_t@std@@V?$tuple@$$QEA_W@2@V?$tuple@$$V@2@@?$vector@U?$dense_map_node@_WUFontUV@LoFi@@@internal@entt@@V?$allocator@U?$dense_map_node@_WUFontUV@LoFi@@@internal@entt@@@std@@@std@@AEAAPEAU?$dense_map_node@_WUFontUV@LoFi@@@internal@entt@@QEAU234@AEA_KAEBUpiecewise_construct_t@1@$$QEAV?$tuple@$$QEA_W@1@$$QEAV?$tuple@$$V@1@@Z
	??$_Emplace_reallocate@AEA_KAEBUpiecewise_construct_t@std@@V?$tuple@$$QEBW4glslang_stage_t@@@2@V?$tuple@$$QEAV?$basic_string_view@DU?$char_traits@D@std@@@std@@@2@@?$vector@U?$dense_map_node@W4glslang_stage_t@@V?$basic_string_view@DU?$char_traits@D@std@@@std@@@internal@entt@@V?$allocator@U?$dense_map_node@W4glslang_stage_t@@V?$basic_string_view@DU?$char_traits@D@std@@@std@@@internal@entt@@@std@@@std@@AEAAPEAU?$dense_map_node@W4glslang_stage_t@@V?$basic_string_view@DU?$char_traits@D@std@@@std@@@internal@entt@@QEAU234@AEA_KAEBUpiecewise_construct_t@1@$$QEAV?$tuple@$$QEBW4glslang_stage_t@@@1@$$QEAV?$tuple@$$QEAV?$basic_string_view@DU?$char_traits@D@std@@@std@@@1@@Z
	??$_Emplace_reallocate@AEA_KAEBUpiecewise_construct_t@std@@V?$tuple@AEAI@2@V?$tuple@AEAW4entity@entt@@@2@@?$vector@U?$dense_map_node@IW4entity@entt@@@internal@entt@@V?$allocator@U?$dense_map_node@IW4entity@entt@@@internal@entt@@@std@@@std@@AEAAPEAU?$dense_map_node@IW4entity@entt@@@internal@entt@@QEAU234@AEA_KAEBUpiecewise_construct_t@1@$$QEAV?$tuple@AEAI@1@$$QEAV?$tuple@AEAW4entity@entt@@@1@@Z
	??$_Emplace_reallocate@AEA_KAEBUpiecewise_construct_t@std@@V?$tuple@AEBI@2@V?$tuple@$$V@2@@?$vector@U?$dense_map_node@IV?$shared_ptr@V?$basic_sparse_set@W4entity@entt@@V?$allocator@W4entity@entt@@@std@@@entt@@@std@@@internal@entt@@V?$allocator@U?$dense_map_node@IV?$shared_ptr@V?$basic_sparse_set@W4entity@entt@@V?$allocator@W4entity@entt@@@std@@@entt@@@std@@@internal@entt@@@std@@@std@@AEAAPEAU?$dense_map_node@IV?$shared_ptr@V?$basic_sparse_set@W4entity@entt@@V?$allocator@W4entity@entt@@@std@@@entt@@@std@@@internal@entt@@QEAU234@AEA_KAEBUpiecewise_construct_t@1@$$QEAV?$tuple@AEBI@1@$$QEAV?$tuple@$$V@1@@Z
	??$_Emplace_reallocate@AEA_KAEBUpiecewise_construct_t@std@@V?$tuple@AEBI@2@V?$tuple@$$V@2@@?$vector@U?$dense_map_node@IW4VkVertexInputRate@@@internal@entt@@V?$allocator@U?$dense_map_node@IW4VkVertexInputRate@@@internal@entt@@@std@@@std@@AEAAPEAU?$dense_map_node@IW4VkVertexInputRate@@@internal@entt@@QEAU234@AEA_KAEBUpiecewise_construct_t@1@$$QEAV?$tuple@AEBI@1@$$QEAV?$tuple@$$V@1@@Z
	??$_Emplace_reallocate@AEA_KAEBUpiecewise_construct_t@std@@V?$tuple@AEBI@2@V?$tuple@$$V@2@@?$vector@U?$dense_map_node@IW4entity@entt@@@internal@entt@@V?$allocator@U?$dense_map_node@IW4entity@entt@@@internal@entt@@@std@@@std@@AEAAPEAU?$dense_map_node@IW4entity@entt@@@internal@entt@@QEAU234@AEA_KAEBUpiecewise_construct_t@1@$$QEAV?$tuple@AEBI@1@$$QEAV?$tuple@$$V@1@@Z
	??$_Emplace_reallocate@AEA_KAEBUpiecewise_construct_t@std@@V?$tuple@AEBUVkSamplerCreateInfo@@@2@V?$tuple@AEAPEAUVkSampler_T@@@2@@?$vector@U?$dense_map_node@UVkSamplerCreateInfo@@PEAUVkSampler_T@@@internal@entt@@V?$allocator@U?$dense_map_node@UVkSamplerCreateInfo@@PEAUVkSampler_T@@@internal@entt@@@std@@@std@@AEAAPEAU?$dense_map_node@UVkSamplerCreateInfo@@PEAUVkSampler_T@@@internal@entt@@QEAU234@AEA_KAEBUpiecewise_construct_t@1@$$QEAV?$tuple@AEBUVkSamplerCreateInfo@@@1@$$QEAV?$tuple@AEAPEAUVkSampler_T@@@1@@Z
	??$_Emplace_reallocate@AEA_KAEBUpiecewise_construct_t@std@@V?$tuple@AEBV?$basic_string@DU?$char_traits@D@std@@V?$allocator@D@2@@std@@@2@V?$tuple@$$QEAUPushConstantMemberInfo@Gfx@Component@LoFi@@@2@@?$vector@U?$dense_map_node@V?$basic_string@DU?$char_traits@D@std@@V?$allocator@D@2@@std@@UPushConstantMemberInfo@Gfx@Component@LoFi@@@internal@entt@@V?$allocator@U?$dense_map_node@V?$basic_string@DU?$char_traits@D@std@@V?$allocator@D@2@@std@@UPushConstantMemberInfo@Gfx@Component@LoFi@@@internal@entt@@@std@@@std@@AEAAPEAU?$dense_map_node@V?$basic_string@DU?$char_traits@D@std@@V?$allocator@D@2@@std@@UPushConstantMemberInfo@Gfx@Component@LoFi@@@internal@entt@@QEAU234@AEA_KAEBUpiecewise_construct_t@1@$$QEAV?$tuple@AEBV?$basic_string@DU?$char_traits@D@std@@V?$allocator@D@2@@std@@@1@$$QEAV?$tuple@$$QEAUPushConstantMemberInfo@Gfx@Component@LoFi@@@1@@Z
	??$_Emplace_reallocate@AEA_KAEBUpiecewise_construct_t@std@@V?$tuple@AEBW4glslang_stage_t@@@2@V?$tuple@$$V@2@@?$vector@U?$dense_map_node@W4glslang_stage_t@@U?$pair@V?$vector@IV?$allocator@I@std@@@std@@PEAUVkShaderModule_T@@@std@@@internal@entt@@V?$allocator@U?$dense_map_node@W4glslang_stage_t@@U?$pair@V?$vector@IV?$allocator@I@std@@@std@@PEAUVkShaderModule_T@@@std@@@internal@entt@@@std@@@std@@AEAAPEAU?$dense_map_node@W4glslang_stage_t@@U?$pair@V?$vector@IV?$allocator@I@std@@@std@@PEAUVkShaderModule_T@@@std@@@internal@entt@@QEAU234@AEA_KAEBUpiecewise_construct_t@1@$$QEAV?$tuple@AEBW4glslang_stage_t@@@1@$$QEAV?$tuple@$$V@1@@Z
	??$_Emplace_reallocate@AEA_KAEBW4entity@entt@@@?$vector@U?$pair@_KW4entity@entt@@@std@@V?$allocator@U?$pair@_KW4entity@entt@@@std@@@2@@std@@AEAAPEAU?$pair@_KW4entity@entt@@@1@QEAU21@AEA_KAEBW4entity@entt@@@Z
	??$_Emplace_reallocate@AEBI@?$vector@IV?$allocator@I@std@@@std@@AEAAPEAIQEAIAEBI@Z
	??$_Emplace_reallocate@AEBIH@?$vector@U?$pair@II@std@@V?$allocator@U?$pair@II@std@@@2@@std@@AEAAPEAU?$pair@II@1@QEAU21@AEBI$$QEAH@Z
	??$_Emplace_reallocate@AEBQEAUArray@?$TaskQueue@PEAVNode@tf@@$02@tf@@@?$vector@PEAUArray@?$TaskQueue@PEAVNode@tf@@$02@tf@@V?$allocator@PEAUArray@?$TaskQueue@PEAVNode@tf@@$02@tf@@@std@@@std@@AEAAPEAPEAUArray@?$TaskQueue@PEAVNode@tf@@$02@tf@@QEAPEAU234@AEBQEAU234@@Z
	??$_Emplace_reallocate@AEBQEAUVkBufferView_T@@@?$vector@PEAUVkBufferView_T@@V?$allocator@PEAUVkBufferView_T@@@std@@@std@@AEAAPEAPEAUVkBufferView_T@@QEAPEAU2@AEBQEAU2@@Z
	??$_Emplace_reallocate@AEBQEAUVkCommandBuffer_T@@@?$vector@PEAUVkCommandBuffer_T@@V?$allocator@PEAUVkCommandBuffer_T@@@std@@@std@@AEAAPEAPEAUVkCommandBuffer_T@@QEAPEAU2@AEBQEAU2@@Z
	??$_Emplace_reallocate@AEBQEAUVkImageView_T@@@?$vector@PEAUVkImageView_T@@V?$allocator@PEAUVkImageView_T@@@std@@@std@@AEAAPEAPEAUVkImageView_T@@QEAPEAU2@AEBQEAU2@@Z
	??$_Emplace_reallocate@AEBQEBD@?$vector@PEBDV?$allocator@PEBD@std@@@std@@AEAAPEAPEBDQEAPEBDAEBQEBD@Z
	??$_Emplace_reallocate@AEBUContextResourceRecoveryInfo@Internal@LoFi@@@?$vector@UContextResourceRecoveryInfo@Internal@LoFi@@V?$allocator@UContextResourceRecoveryInfo@Internal@LoFi@@@std@@@std@@AEAAPEAUContextResourceRecoveryInfo@Internal@LoFi@@QEAU234@AEBU234@@Z
	??$_Emplace_reallocate@AEBUShadowParameter@LoFi@@@?$vector@UShadowParameter@LoFi@@V?$allocator@UShadowParameter@LoFi@@@std@@@std@@AEAAPEAUShadowParameter@LoFi@@QEAU23@AEBU23@@Z
	??$_Emplace_reallocate@AEBUStrockTypeParameter@LoFi@@@?$vector@UStrockTypeParameter@LoFi@@V?$allocator@UStrockTypeParameter@LoFi@@@std@@@std@@AEAAPEAUStrockTypeParameter@LoFi@@QEAU23@AEBU23@@Z
	??$_Emplace_reallocate@AEBUVkBufferViewCreateInfo@@@?$vector@UVkBufferViewCreateInfo@@V?$allocator@UVkBufferViewCreateInfo@@@std@@@std@@AEAAPEAUVkBufferViewCreateInfo@@QEAU2@AEBU2@@Z
	??$_Emplace_reallocate@AEBUVkImageViewCreateInfo@@@?$vector@UVkImageViewCreateInfo@@V?$allocator@UVkImageViewCreateInfo@@@std@@@std@@AEAAPEAUVkImageViewCreateInfo@@QEAU2@AEBU2@@Z
	??$_Emplace_reallocate@AEBUVkPipelineColorBlendAttachmentState@@@?$vector@UVkPipelineColorBlendAttachmentState@@V?$allocator@UVkPipelineColorBlendAttachmentState@@@std@@@std@@AEAAPEAUVkPipelineColorBlendAttachmentState@@QEAU2@AEBU2@@Z
	??$_Emplace_reallocate@AEBUVkRenderingAttachmentInfo@@@?$vector@UVkRenderingAttachmentInfo@@V?$allocator@UVkRenderingAttachmentInfo@@@std@@@std@@AEAAPEAUVkRenderingAttachmentInfo@@QEAU2@AEBU2@@Z
	??$_Emplace_reallocate@AEBUVkVertexInputAttributeDescription@@@?$vector@UVkVertexInputAttributeDescription@@V?$allocator@UVkVertexInputAttributeDescription@@@std@@@std@@AEAAPEAUVkVertexInputAttributeDescription@@QEAU2@AEBU2@@Z
	??$_Emplace_reallocate@AEBUVkVertexInputBindingDescription@@@?$vector@UVkVertexInputBindingDescription@@V?$allocator@UVkVertexInputBindingDescription@@@std@@@std@@AEAAPEAUVkVertexInputBindingDescription@@QEAU2@AEBU2@@Z
	??$_Emplace_reallocate@AEBUWorkerSummary@TFProfObserver@tf@@@?$vector@UWorkerSummary@TFProfObserver@tf@@V?$allocator@UWorkerSummary@TFProfObserver@tf@@@std@@@std@@AEAAPEAUWorkerSummary@TFProfObserver@tf@@QEAU234@AEBU234@@Z
	??$_Emplace_reallocate@AEBV?$basic_string@DU?$char_traits@D@std@@V?$allocator@D@2@@std@@@?$vector@V?$basic_string_view@DU?$char_traits@D@std@@@std@@V?$allocator@V?$basic_string_view@DU?$char_traits@D@std@@@std@@@2@@std@@AEAAPEAV?$basic_string_view@DU?$char_traits@D@std@@@1@QEAV21@AEBV?$basic_string@DU?$char_traits@D@std@@V?$allocator@D@2@@1@@Z
	??$_Emplace_reallocate@AEBV?$basic_string@DU?$char_traits@D@std@@V?$allocator@D@2@@std@@W4TaskType@tf@@AEAV?$time_point@Usteady_clock@chrono@std@@V?$duration@_JU?$ratio@$00$0DLJKMKAA@@std@@@23@@chrono@2@V562@@?$vector@USegment@tf@@V?$allocator@USegment@tf@@@std@@@std@@AEAAPEAUSegment@tf@@QEAU23@AEBV?$basic_string@DU?$char_traits@D@std@@V?$allocator@D@2@@1@$$QEAW4TaskType@3@AEAV?$time_point@Usteady_clock@chrono@std@@V?$duration@_JU?$ratio@$00$0DLJKMKAA@@std@@@23@@chrono@1@$$QEAV671@@Z
	??$_Emplace_reallocate@AEBW4VkFormat@@@?$vector@W4VkFormat@@V?$allocator@W4VkFormat@@@std@@@std@@AEAAPEAW4VkFormat@@QEAW42@AEBW42@@Z
	??$_Emplace_reallocate@AEBW4entity@entt@@@?$vector@W4entity@entt@@V?$allocator@W4entity@entt@@@std@@@std@@AEAAPEAW4entity@entt@@QEAW423@AEBW423@@Z
	??$_Emplace_reallocate@HHAEAIHAEAI@?$vector@UVkDrawIndexedIndirectCommand@@V?$allocator@UVkDrawIndexedIndirectCommand@@@std@@@std@@AEAAPEAUVkDrawIndexedIndirectCommand@@QEAU2@$$QEAH1AEAI12@Z
	??$_Emplace_reallocate@I@?$vector@IV?$allocator@I@std@@@std@@AEAAPEAIQEAI$$QEAI@Z
	??$_Emplace_reallocate@PEAUVkSemaphore_T@@@?$vector@PEAUVkSemaphore_T@@V?$allocator@PEAUVkSemaphore_T@@@std@@@std@@AEAAPEAPEAUVkSemaphore_T@@QEAPEAU2@$$QEAPEAU2@@Z
	??$_Emplace_reallocate@PEAUVkSwapchainKHR_T@@@?$vector@PEAUVkSwapchainKHR_T@@V?$allocator@PEAUVkSwapchainKHR_T@@@std@@@std@@AEAAPEAPEAUVkSwapchainKHR_T@@QEAPEAU2@$$QEAPEAU2@@Z
	??$_Emplace_reallocate@PEAVNode@tf@@@?$vector@PEAVNode@tf@@V?$allocator@PEAVNode@tf@@@std@@@std@@AEAAPEAPEAVNode@tf@@QEAPEAV23@$$QEAPEAV23@@Z
	??$_Emplace_reallocate@U?$vec@$01M$0A@@glm@@AEAGAEAGAEAGAEAGAEAGAEAGAEAU?$vec@$03E$0A@@2@AEAU32@AEAU32@AEAU32@AEAU32@@?$vector@UGradientData@LoFi@@V?$allocator@UGradientData@LoFi@@@std@@@std@@AEAAPEAUGradientData@LoFi@@QEAU23@$$QEAU?$vec@$01M$0A@@glm@@AEAG22222AEAU?$vec@$03E$0A@@5@3333@Z
	??$_Emplace_reallocate@U?$vec@$01M$0A@@glm@@HAEAGAEAGAEAGAEAGAEAGAEAU?$vec@$03E$0A@@2@AEAU32@AEAU32@AEAU32@AEAU32@@?$vector@UGradientData@LoFi@@V?$allocator@UGradientData@LoFi@@@std@@@std@@AEAAPEAUGradientData@LoFi@@QEAU23@$$QEAU?$vec@$01M$0A@@glm@@$$QEAHAEAG3333AEAU?$vec@$03E$0A@@5@4444@Z
	??$_Emplace_reallocate@U?$vec@$01M$0A@@glm@@U12@@?$vector@UGenDrawVertexData@LoFi@@V?$allocator@UGenDrawVertexData@LoFi@@@std@@@std@@AEAAPEAUGenDrawVertexData@LoFi@@QEAU23@$$QEAU?$vec@$01M$0A@@glm@@1@Z
	??$_Emplace_reallocate@UGlyphBox@msdf_atlas@@@?$vector@UGlyphBox@msdf_atlas@@V?$allocator@UGlyphBox@msdf_atlas@@@std@@@std@@AEAAPEAUGlyphBox@msdf_atlas@@QEAU23@$$QEAU23@@Z
	??$_Emplace_reallocate@UTimeline@tf@@@?$vector@UTimeline@tf@@V?$allocator@UTimeline@tf@@@std@@@std@@AEAAPEAUTimeline@tf@@QEAU23@$$QEAU23@@Z
	??$_Emplace_reallocate@V?$_String_view_iterator@U?$char_traits@D@std@@@std@@V12@@?$vector@V?$basic_string@DU?$char_traits@D@std@@V?$allocator@D@2@@std@@V?$allocator@V?$basic_string@DU?$char_traits@D@std@@V?$allocator@D@2@@std@@@2@@std@@AEAAPEAV?$basic_string@DU?$char_traits@D@std@@V?$allocator@D@2@@1@QEAV21@$$QEAV?$_String_view_iterator@U?$char_traits@D@std@@@1@1@Z
	??$_Emplace_reallocate@V?$basic_string@DU?$char_traits@D@std@@V?$allocator@D@2@@std@@@?$vector@V?$basic_string@DU?$char_traits@D@std@@V?$allocator@D@2@@std@@V?$allocator@V?$basic_string@DU?$char_traits@D@std@@V?$allocator@D@2@@std@@@2@@std@@AEAAPEAV?$basic_string@DU?$char_traits@D@std@@V?$allocator@D@2@@1@QEAV21@$$QEAV21@@Z
	??$_Emplace_reallocate@V?$basic_string_view@DU?$char_traits@D@std@@@std@@@?$vector@V?$basic_string_view@DU?$char_traits@D@std@@@std@@V?$allocator@V?$basic_string_view@DU?$char_traits@D@std@@@std@@@2@@std@@AEAAPEAV?$basic_string_view@DU?$char_traits@D@std@@@1@QEAV21@$$QEAV21@@Z
	??$_Emplace_reallocate@V?$shared_ptr@VTFProfObserver@tf@@@std@@@?$vector@V?$shared_ptr@VTFProfObserver@tf@@@std@@V?$allocator@V?$shared_ptr@VTFProfObserver@tf@@@std@@@2@@std@@AEAAPEAV?$shared_ptr@VTFProfObserver@tf@@@1@QEAV21@$$QEAV21@@Z
	??$_Emplace_reallocate@V?$unique_ptr@VTexture@Gfx@Component@LoFi@@U?$default_delete@VTexture@Gfx@Component@LoFi@@@std@@@std@@@?$vector@V?$unique_ptr@VTexture@Gfx@Component@LoFi@@U?$default_delete@VTexture@Gfx@Component@LoFi@@@std@@@std@@V?$allocator@V?$unique_ptr@VTexture@Gfx@Component@LoFi@@U?$default_delete@VTexture@Gfx@Component@LoFi@@@std@@@std@@@2@@std@@AEAAPEAV?$unique_ptr@VTexture@Gfx@Component@LoFi@@U?$default_delete@VTexture@Gfx@Component@LoFi@@@std@@@1@QEAV21@$$QEAV21@@Z
	??$_Erase_tree@V?$allocator@U?$_Tree_node@IPEAX@std@@@std@@@?$_Tree_val@U?$_Tree_simple_types@I@std@@@std@@QEAAXAEAV?$allocator@U?$_Tree_node@IPEAX@std@@@1@PEAU?$_Tree_node@IPEAX@1@@Z
	??$_Erase_tree@V?$allocator@U?$_Tree_node@U?$pair@$$CBH_K@std@@PEAX@std@@@std@@@?$_Tree_val@U?$_Tree_simple_types@U?$pair@$$CBH_K@std@@@std@@@std@@QEAAXAEAV?$allocator@U?$_Tree_node@U?$pair@$$CBH_K@std@@PEAX@std@@@1@PEAU?$_Tree_node@U?$pair@$$CBH_K@std@@PEAX@1@@Z
	??$_Erase_tree@V?$allocator@U?$_Tree_node@U?$pair@$$CBI_K@std@@PEAX@std@@@std@@@?$_Tree_val@U?$_Tree_simple_types@U?$pair@$$CBI_K@std@@@std@@@std@@QEAAXAEAV?$allocator@U?$_Tree_node@U?$pair@$$CBI_K@std@@PEAX@std@@@1@PEAU?$_Tree_node@U?$pair@$$CBI_K@std@@PEAX@1@@Z
	??$_Erase_tree@V?$allocator@U?$_Tree_node@U?$pair@$$CBU?$pair@HH@std@@N@std@@PEAX@std@@@std@@@?$_Tree_val@U?$_Tree_simple_types@U?$pair@$$CBU?$pair@HH@std@@N@std@@@std@@@std@@QEAAXAEAV?$allocator@U?$_Tree_node@U?$pair@$$CBU?$pair@HH@std@@N@std@@PEAX@std@@@1@PEAU?$_Tree_node@U?$pair@$$CBU?$pair@HH@std@@N@std@@PEAX@1@@Z
	??$_Erase_tree@V?$allocator@U?$_Tree_node@U?$pair@$$CBV?$basic_string@DU?$char_traits@D@std@@V?$allocator@D@2@@std@@W4glslang_stage_t@@@std@@PEAX@std@@@std@@@?$_Tree_val@U?$_Tree_simple_types@U?$pair@$$CBV?$basic_string@DU?$char_traits@D@std@@V?$allocator@D@2@@std@@W4glslang_stage_t@@@std@@@std@@@std@@QEAAXAEAV?$allocator@U?$_Tree_node@U?$pair@$$CBV?$basic_string@DU?$char_traits@D@std@@V?$allocator@D@2@@std@@W4glslang_stage_t@@@std@@PEAX@std@@@1@PEAU?$_Tree_node@U?$pair@$$CBV?$basic_string@DU?$char_traits@D@std@@V?$allocator@D@2@@std@@W4glslang_stage_t@@@std@@PEAX@1@@Z
	??$_Find_hint@V?$basic_string@DU?$char_traits@D@std@@V?$allocator@D@2@@std@@@?$_Tree@V?$_Tmap_traits@V?$basic_string@DU?$char_traits@D@std@@V?$allocator@D@2@@std@@W4glslang_stage_t@@U?$less@V?$basic_string@DU?$char_traits@D@std@@V?$allocator@D@2@@std@@@2@V?$allocator@U?$pair@$$CBV?$basic_string@DU?$char_traits@D@std@@V?$allocator@D@2@@std@@W4glslang_stage_t@@@std@@@2@$0A@@std@@@std@@IEBA?AU?$_Tree_find_hint_result@PEAU?$_Tree_node@U?$pair@$$CBV?$basic_string@DU?$char_traits@D@std@@V?$allocator@D@2@@std@@W4glslang_stage_t@@@std@@PEAX@std@@@1@QEAU?$_Tree_node@U?$pair@$$CBV?$basic_string@DU?$char_traits@D@std@@V?$allocator@D@2@@std@@W4glslang_stage_t@@@std@@PEAX@1@AEBV?$basic_string@DU?$char_traits@D@std@@V?$allocator@D@2@@1@@Z
	??$_Floating_to_chars@$00M@std@@YA?AUto_chars_result@0@PEADQEADMW4chars_format@0@H@Z
	??$_Floating_to_chars@$00N@std@@YA?AUto_chars_result@0@PEADQEADNW4chars_format@0@H@Z
	??$_Floating_to_chars@$01M@std@@YA?AUto_chars_result@0@PEADQEADMW4chars_format@0@H@Z
	??$_Floating_to_chars@$01N@std@@YA?AUto_chars_result@0@PEADQEADNW4chars_format@0@H@Z
	??$_Floating_to_chars@$0A@M@std@@YA?AUto_chars_result@0@PEADQEADMW4chars_format@0@H@Z
	??$_Floating_to_chars_general_precision@M@std@@YA?AUto_chars_result@0@PEADQEADMH@Z
	??$_Floating_to_chars_general_precision@N@std@@YA?AUto_chars_result@0@PEADQEADNH@Z
	??$_Floating_to_chars_hex_precision@M@std@@YA?AUto_chars_result@0@PEADQEADMH@Z
	??$_Floating_to_chars_hex_precision@N@std@@YA?AUto_chars_result@0@PEADQEADNH@Z
	??$_Floating_to_chars_hex_shortest@M@std@@YA?AUto_chars_result@0@PEADQEADM@Z
	??$_Floating_to_chars_hex_shortest@N@std@@YA?AUto_chars_result@0@PEADQEADN@Z
	??$_Fmt_write@DV?$back_insert_iterator@V?$_Fmt_buffer@D@std@@@std@@@__p2286@std@@YA?AV?$back_insert_iterator@V?$_Fmt_buffer@D@std@@@1@V21@DU?$_Basic_format_specs@D@1@V_Lazy_locale@1@@Z
	??$_Fmt_write@DV?$back_insert_iterator@V?$_Fmt_buffer@D@std@@@std@@@__p2286@std@@YA?AV?$back_insert_iterator@V?$_Fmt_buffer@D@std@@@1@V21@QEBX@Z
	??$_Fmt_write@DV?$back_insert_iterator@V?$_Fmt_buffer@D@std@@@std@@@__p2286@std@@YA?AV?$back_insert_iterator@V?$_Fmt_buffer@D@std@@@1@V21@V?$basic_string_view@DU?$char_traits@D@std@@@1@AEBU?$_Basic_format_specs@D@1@V_Lazy_locale@1@@Z
	??$_Fmt_write@DV?$back_insert_iterator@V?$_Fmt_buffer@D@std@@@std@@@__p2286@std@@YA?AV?$back_insert_iterator@V?$_Fmt_buffer@D@std@@@1@V21@_NU?$_Basic_format_specs@D@1@V_Lazy_locale@1@@Z
	??$_Fmt_write@DV?$back_insert_iterator@V?$_Fmt_buffer@D@std@@@std@@M@__p2286@std@@YA?AV?$back_insert_iterator@V?$_Fmt_buffer@D@std@@@1@V21@M@Z
	??$_Fmt_write@DV?$back_insert_iterator@V?$_Fmt_buffer@D@std@@@std@@M@__p2286@std@@YA?AV?$back_insert_iterator@V?$_Fmt_buffer@D@std@@@1@V21@MAEBU?$_Basic_format_specs@D@1@V_Lazy_locale@1@@Z
	??$_Fmt_write@DV?$back_insert_iterator@V?$_Fmt_buffer@D@std@@@std@@N@__p2286@std@@YA?AV?$back_insert_iterator@V?$_Fmt_buffer@D@std@@@1@V21@N@Z
	??$_Fmt_write@DV?$back_insert_iterator@V?$_Fmt_buffer@D@std@@@std@@N@__p2286@std@@YA?AV?$back_insert_iterator@V?$_Fmt_buffer@D@std@@@1@V21@NAEBU?$_Basic_format_specs@D@1@V_Lazy_locale@1@@Z
	??$_Fmt_write@DV?$back_insert_iterator@V?$_Fmt_buffer@D@std@@@std@@O@__p2286@std@@YA?AV?$back_insert_iterator@V?$_Fmt_buffer@D@std@@@1@V21@O@Z
	??$_Fmt_write@DV?$back_insert_iterator@V?$_Fmt_buffer@D@std@@@std@@O@__p2286@std@@YA?AV?$back_insert_iterator@V?$_Fmt_buffer@D@std@@@1@V21@OAEBU?$_Basic_format_specs@D@1@V_Lazy_locale@1@@Z
	??$_Getvals@_W@?$time_get@DV?$istreambuf_iterator@DU?$char_traits@D@std@@@std@@@std@@IEAAX_WAEBV_Locinfo@1@@Z
	??$_Getvals@_W@?$time_get@_WV?$istreambuf_iterator@_WU?$char_traits@_W@std@@@std@@@std@@IEAAX_WAEBV_Locinfo@1@@Z
	??$_Insert_range_unchecked@PEBU?$pair@$$CBV?$basic_string@DU?$char_traits@D@std@@V?$allocator@D@2@@std@@W4glslang_stage_t@@@std@@PEBU12@@?$_Tree@V?$_Tmap_traits@V?$basic_string@DU?$char_traits@D@std@@V?$allocator@D@2@@std@@W4glslang_stage_t@@U?$less@V?$basic_string@DU?$char_traits@D@std@@V?$allocator@D@2@@std@@@2@V?$allocator@U?$pair@$$CBV?$basic_string@DU?$char_traits@D@std@@V?$allocator@D@2@@std@@W4glslang_stage_t@@@std@@@2@$0A@@std@@@std@@IEAAXPEBU?$pair@$$CBV?$basic_string@DU?$char_traits@D@std@@V?$allocator@D@2@@std@@W4glslang_stage_t@@@1@QEBU21@@Z
	??$_Insert_string@DU?$char_traits@D@std@@_K@std@@YAAEAV?$basic_ostream@DU?$char_traits@D@std@@@0@AEAV10@QEBD_K@Z
	??$_Integer_to_chars@D@std@@YA?AUto_chars_result@0@PEADQEADDH@Z
	??$_Integer_to_chars@E@std@@YA?AUto_chars_result@0@PEADQEADEH@Z
	??$_Integer_to_chars@H@std@@YA?AUto_chars_result@0@PEADQEADHH@Z
	??$_Integer_to_chars@I@std@@YA?AUto_chars_result@0@PEADQEADIH@Z
	??$_Integer_to_chars@_J@std@@YA?AUto_chars_result@0@PEADQEAD_JH@Z
	??$_Integer_to_chars@_K@std@@YA?AUto_chars_result@0@PEADQEAD_KH@Z
	??$_Invoke@V?$tuple@V<lambda_1>@?0??_spawn@Executor@tf@@AEAAX_K@Z@@std@@$0A@@thread@std@@CAIPEAX@Z
	??$_Large_integer_to_chars@D@std@@YA?AU?$pair@PEADW4errc@std@@@0@QEAD0IH@Z
	??$_Measure_string_prefix@D@__p2286@std@@YAPEBDV?$basic_string_view@DU?$char_traits@D@std@@@1@AEAH@Z
	??$_On_dynamic_precision@U_Auto_id_tag@std@@@?$_Specs_handler@V?$basic_format_parse_context@D@std@@V?$basic_format_context@V?$back_insert_iterator@V?$_Fmt_buffer@D@std@@@std@@D@2@@std@@QEAAXU_Auto_id_tag@1@@Z
	??$_On_dynamic_precision@_K@?$_Specs_handler@V?$basic_format_parse_context@D@std@@V?$basic_format_context@V?$back_insert_iterator@V?$_Fmt_buffer@D@std@@@std@@D@2@@std@@QEAAX_K@Z
	??$_On_dynamic_width@U_Auto_id_tag@std@@@?$_Specs_handler@V?$basic_format_parse_context@D@std@@V?$basic_format_context@V?$back_insert_iterator@V?$_Fmt_buffer@D@std@@@std@@D@2@@std@@QEAAXU_Auto_id_tag@1@@Z
	??$_On_dynamic_width@_K@?$_Specs_handler@V?$basic_format_parse_context@D@std@@V?$basic_format_context@V?$back_insert_iterator@V?$_Fmt_buffer@D@std@@@std@@D@2@@std@@QEAAX_K@Z
	??$_On_type@D@?$_Specs_checker@V?$_Specs_handler@V?$basic_format_parse_context@D@std@@V?$basic_format_context@V?$back_insert_iterator@V?$_Fmt_buffer@D@std@@@std@@D@2@@std@@@std@@QEAAXD@Z
	??$_Parse_align@DAEAV?$_Specs_checker@V?$_Specs_handler@V?$basic_format_parse_context@D@std@@V?$basic_format_context@V?$back_insert_iterator@V?$_Fmt_buffer@D@std@@@std@@D@2@@std@@@std@@@std@@YAPEBDPEBD0AEAV?$_Specs_checker@V?$_Specs_handler@V?$basic_format_parse_context@D@std@@V?$basic_format_context@V?$back_insert_iterator@V?$_Fmt_buffer@D@std@@@std@@D@2@@std@@@0@@Z
	??$_Parse_arg_id@DAEAU?$_Id_adapter@D@std@@@std@@YAPEBDPEBD0AEAU?$_Id_adapter@D@0@@Z
	??$_Parse_arg_id@DU?$_Precision_adapter@DAEAV?$_Specs_checker@V?$_Specs_handler@V?$basic_format_parse_context@D@std@@V?$basic_format_context@V?$back_insert_iterator@V?$_Fmt_buffer@D@std@@@std@@D@2@@std@@@std@@@std@@@std@@YAPEBDPEBD0$$QEAU?$_Precision_adapter@DAEAV?$_Specs_checker@V?$_Specs_handler@V?$basic_format_parse_context@D@std@@V?$basic_format_context@V?$back_insert_iterator@V?$_Fmt_buffer@D@std@@@std@@D@2@@std@@@std@@@0@@Z
	??$_Parse_arg_id@DU?$_Width_adapter@DAEAV?$_Specs_checker@V?$_Specs_handler@V?$basic_format_parse_context@D@std@@V?$basic_format_context@V?$back_insert_iterator@V?$_Fmt_buffer@D@std@@@std@@D@2@@std@@@std@@@std@@@std@@YAPEBDPEBD0$$QEAU?$_Width_adapter@DAEAV?$_Specs_checker@V?$_Specs_handler@V?$basic_format_parse_context@D@std@@V?$basic_format_context@V?$back_insert_iterator@V?$_Fmt_buffer@D@std@@@std@@D@2@@std@@@std@@@0@@Z
	??$_Parse_format_specs@DAEAV?$_Specs_checker@V?$_Specs_handler@V?$basic_format_parse_context@D@std@@V?$basic_format_context@V?$back_insert_iterator@V?$_Fmt_buffer@D@std@@@std@@D@2@@std@@@std@@@std@@YAPEBDPEBD0AEAV?$_Specs_checker@V?$_Specs_handler@V?$basic_format_parse_context@D@std@@V?$basic_format_context@V?$back_insert_iterator@V?$_Fmt_buffer@D@std@@@std@@D@2@@std@@@0@@Z
	??$_Parse_format_string@DAEAU?$_Format_handler@D@__p2286@std@@@std@@YAXV?$basic_string_view@DU?$char_traits@D@std@@@0@AEAU?$_Format_handler@D@__p2286@0@@Z
	??$_Parse_precision@DAEAV?$_Specs_checker@V?$_Specs_handler@V?$basic_format_parse_context@D@std@@V?$basic_format_context@V?$back_insert_iterator@V?$_Fmt_buffer@D@std@@@std@@D@2@@std@@@std@@@std@@YAPEBDPEBD0AEAV?$_Specs_checker@V?$_Specs_handler@V?$basic_format_parse_context@D@std@@V?$basic_format_context@V?$back_insert_iterator@V?$_Fmt_buffer@D@std@@@std@@D@2@@std@@@0@@Z
	??$_Parse_replacement_field@DAEAU?$_Format_handler@D@__p2286@std@@@std@@YAPEBDPEBD0AEAU?$_Format_handler@D@__p2286@0@@Z
	??$_Parse_width@DAEAV?$_Specs_checker@V?$_Specs_handler@V?$basic_format_parse_context@D@std@@V?$basic_format_context@V?$back_insert_iterator@V?$_Fmt_buffer@D@std@@@std@@D@2@@std@@@std@@@std@@YAPEBDPEBD0AEAV?$_Specs_checker@V?$_Specs_handler@V?$basic_format_parse_context@D@std@@V?$basic_format_context@V?$back_insert_iterator@V?$_Fmt_buffer@D@std@@@std@@D@2@@std@@@0@@Z
	??$_Reallocate@$00@?$vector@W4entity@entt@@V?$allocator@W4entity@entt@@@std@@@std@@AEAAXAEA_K@Z
	??$_Reallocate@$0A@@?$vector@IV?$allocator@I@std@@@std@@AEAAXAEA_K@Z
	??$_Reallocate@$0A@@?$vector@PEAUArray@?$TaskQueue@PEAVNode@tf@@$02@tf@@V?$allocator@PEAUArray@?$TaskQueue@PEAVNode@tf@@$02@tf@@@std@@@std@@AEAAXAEA_K@Z
	??$_Reallocate@$0A@@?$vector@PEAUVkCommandBuffer_T@@V?$allocator@PEAUVkCommandBuffer_T@@@std@@@std@@AEAAXAEA_K@Z
	??$_Reallocate@$0A@@?$vector@PEAUVkSemaphore_T@@V?$allocator@PEAUVkSemaphore_T@@@std@@@std@@AEAAXAEA_K@Z
	??$_Reallocate@$0A@@?$vector@PEAUVkSwapchainKHR_T@@V?$allocator@PEAUVkSwapchainKHR_T@@@std@@@std@@AEAAXAEA_K@Z
	??$_Reallocate@$0A@@?$vector@PEAVNode@tf@@V?$allocator@PEAVNode@tf@@@std@@@std@@AEAAXAEA_K@Z
	??$_Reallocate@$0A@@?$vector@U?$dense_map_node@IV?$shared_ptr@V?$basic_sparse_set@W4entity@entt@@V?$allocator@W4entity@entt@@@std@@@entt@@@std@@@internal@entt@@V?$allocator@U?$dense_map_node@IV?$shared_ptr@V?$basic_sparse_set@W4entity@entt@@V?$allocator@W4entity@entt@@@std@@@entt@@@std@@@internal@entt@@@std@@@std@@AEAAXAEA_K@Z
	??$_Reallocate@$0A@@?$vector@UGenDrawVertexData@LoFi@@V?$allocator@UGenDrawVertexData@LoFi@@@std@@@std@@AEAAXAEA_K@Z
	??$_Reallocate@$0A@@?$vector@UTimeline@tf@@V?$allocator@UTimeline@tf@@@std@@@std@@AEAAXAEA_K@Z
	??$_Reallocate@$0A@@?$vector@W4entity@entt@@V?$allocator@W4entity@entt@@@std@@@std@@AEAAXAEA_K@Z
	??$_Reallocate_for@V<lambda_1>@?0??assign@?$basic_string@DU?$char_traits@D@std@@V?$allocator@D@2@@std@@QEAAAEAV34@QEBD_K@Z@PEBD@?$basic_string@DU?$char_traits@D@std@@V?$allocator@D@2@@std@@AEAAAEAV01@_KV<lambda_1>@?0??assign@01@QEAAAEAV01@QEBD0@Z@PEBD@Z
	??$_Reallocate_grow_by@V<lambda_1>@?0??append@?$basic_string@DU?$char_traits@D@std@@V?$allocator@D@2@@std@@QEAAAEAV34@QEBD_K@Z@PEBD_K@?$basic_string@DU?$char_traits@D@std@@V?$allocator@D@2@@std@@AEAAAEAV01@_KV<lambda_1>@?0??append@01@QEAAAEAV01@QEBD0@Z@PEBD_K@Z
	??$_Reallocate_grow_by@V<lambda_1>@?0??insert@?$basic_string@DU?$char_traits@D@std@@V?$allocator@D@2@@std@@QEAAAEAV34@_KQEBD0@Z@_KPEBD_K@?$basic_string@DU?$char_traits@D@std@@V?$allocator@D@2@@std@@AEAAAEAV01@_KV<lambda_1>@?0??insert@01@QEAAAEAV01@0QEBD0@Z@_KPEBD3@Z
	??$_Reallocate_grow_by@V<lambda_1>@?0??push_back@?$basic_string@DU?$char_traits@D@std@@V?$allocator@D@2@@std@@QEAAXD@Z@D@?$basic_string@DU?$char_traits@D@std@@V?$allocator@D@2@@std@@AEAAAEAV01@_KV<lambda_1>@?0??push_back@01@QEAAXD@Z@D@Z
	??$_Reallocate_grow_by@V<lambda_1>@?0??replace@?$basic_string@DU?$char_traits@D@std@@V?$allocator@D@2@@std@@QEAAAEAV34@_K_KQEBD0@Z@_K_KPEBD_K@?$basic_string@DU?$char_traits@D@std@@V?$allocator@D@2@@std@@AEAAAEAV01@_KV<lambda_1>@?0??replace@01@QEAAAEAV01@0_KQEBD0@Z@11PEBD1@Z
	??$_Reallocate_grow_by@V<lambda_1>@?0??reserve@?$basic_string@DU?$char_traits@D@std@@V?$allocator@D@2@@std@@QEAAX_K@Z@$$V@?$basic_string@DU?$char_traits@D@std@@V?$allocator@D@2@@std@@AEAAAEAV01@_KV<lambda_1>@?0??reserve@01@QEAAX0@Z@@Z
	??$_Resize@U_Value_init_tag@std@@@?$vector@V?$stack@V?$time_point@Usteady_clock@chrono@std@@V?$duration@_JU?$ratio@$00$0DLJKMKAA@@std@@@23@@chrono@std@@V?$deque@V?$time_point@Usteady_clock@chrono@std@@V?$duration@_JU?$ratio@$00$0DLJKMKAA@@std@@@23@@chrono@std@@V?$allocator@V?$time_point@Usteady_clock@chrono@std@@V?$duration@_JU?$ratio@$00$0DLJKMKAA@@std@@@23@@chrono@std@@@3@@3@@std@@V?$allocator@V?$stack@V?$time_point@Usteady_clock@chrono@std@@V?$duration@_JU?$ratio@$00$0DLJKMKAA@@std@@@23@@chrono@std@@V?$deque@V?$time_point@Usteady_clock@chrono@std@@V?$duration@_JU?$ratio@$00$0DLJKMKAA@@std@@@23@@chrono@std@@V?$allocator@V?$time_point@Usteady_clock@chrono@std@@V?$duration@_JU?$ratio@$00$0DLJKMKAA@@std@@@23@@chrono@std@@@3@@3@@std@@@2@@std@@AEAAX_KAEBU_Value_init_tag@1@@Z
	??$_Resize@U_Value_init_tag@std@@@?$vector@V?$vector@V?$vector@USegment@tf@@V?$allocator@USegment@tf@@@std@@@std@@V?$allocator@V?$vector@USegment@tf@@V?$allocator@USegment@tf@@@std@@@std@@@2@@std@@V?$allocator@V?$vector@V?$vector@USegment@tf@@V?$allocator@USegment@tf@@@std@@@std@@V?$allocator@V?$vector@USegment@tf@@V?$allocator@USegment@tf@@@std@@@std@@@2@@std@@@2@@std@@AEAAX_KAEBU_Value_init_tag@1@@Z
	??$_Resize_reallocate@PEAVBuffer3F@Gfx@Component@LoFi@@@?$vector@PEAVBuffer3F@Gfx@Component@LoFi@@V?$allocator@PEAVBuffer3F@Gfx@Component@LoFi@@@std@@@std@@AEAAX_KAEBQEAVBuffer3F@Gfx@Component@LoFi@@@Z
	??$_Resize_reallocate@PEAVBuffer@Gfx@Component@LoFi@@@?$vector@PEAVBuffer@Gfx@Component@LoFi@@V?$allocator@PEAVBuffer@Gfx@Component@LoFi@@@std@@@std@@AEAAX_KAEBQEAVBuffer@Gfx@Component@LoFi@@@Z
	??$_Resize_reallocate@PEAVKernel@Gfx@Component@LoFi@@@?$vector@PEAVKernel@Gfx@Component@LoFi@@V?$allocator@PEAVKernel@Gfx@Component@LoFi@@@std@@@std@@AEAAX_KAEBQEAVKernel@Gfx@Component@LoFi@@@Z
	??$_Resize_reallocate@PEAVProgram@Gfx@Component@LoFi@@@?$vector@PEAVProgram@Gfx@Component@LoFi@@V?$allocator@PEAVProgram@Gfx@Component@LoFi@@@std@@@std@@AEAAX_KAEBQEAVProgram@Gfx@Component@LoFi@@@Z
	??$_Resize_reallocate@PEAVSwapchain@Gfx@Component@LoFi@@@?$vector@PEAVSwapchain@Gfx@Component@LoFi@@V?$allocator@PEAVSwapchain@Gfx@Component@LoFi@@@std@@@std@@AEAAX_KAEBQEAVSwapchain@Gfx@Component@LoFi@@@Z
	??$_Resize_reallocate@PEAVTexture@Gfx@Component@LoFi@@@?$vector@PEAVTexture@Gfx@Component@LoFi@@V?$allocator@PEAVTexture@Gfx@Component@LoFi@@@std@@@std@@AEAAX_KAEBQEAVTexture@Gfx@Component@LoFi@@@Z
	??$_Resize_reallocate@PEAVWindow@Gfx@Component@LoFi@@@?$vector@PEAVWindow@Gfx@Component@LoFi@@V?$allocator@PEAVWindow@Gfx@Component@LoFi@@@std@@@std@@AEAAX_KAEBQEAVWindow@Gfx@Component@LoFi@@@Z
	??$_Resize_reallocate@PEAW4entity@entt@@@?$vector@PEAW4entity@entt@@V?$allocator@PEAW4entity@entt@@@std@@@std@@AEAAX_KAEBQEAW4entity@entt@@@Z
	??$_Resize_reallocate@U_Value_init_tag@std@@@?$vector@EV?$allocator@E@std@@@std@@AEAAX_KAEBU_Value_init_tag@1@@Z
	??$_Resize_reallocate@U_Value_init_tag@std@@@?$vector@IV?$allocator@I@std@@@std@@AEAAX_KAEBU_Value_init_tag@1@@Z
	??$_Resize_reallocate@U_Value_init_tag@std@@@?$vector@MV?$allocator@M@std@@@std@@AEAAX_KAEBU_Value_init_tag@1@@Z
	??$_Resize_reallocate@U_Value_init_tag@std@@@?$vector@PEAUVkCommandBuffer_T@@V?$allocator@PEAUVkCommandBuffer_T@@@std@@@std@@AEAAX_KAEBU_Value_init_tag@1@@Z
	??$_Resize_reallocate@U_Value_init_tag@std@@@?$vector@PEAVBuffer3F@Gfx@Component@LoFi@@V?$allocator@PEAVBuffer3F@Gfx@Component@LoFi@@@std@@@std@@AEAAX_KAEBU_Value_init_tag@1@@Z
	??$_Resize_reallocate@U_Value_init_tag@std@@@?$vector@PEAVBuffer@Gfx@Component@LoFi@@V?$allocator@PEAVBuffer@Gfx@Component@LoFi@@@std@@@std@@AEAAX_KAEBU_Value_init_tag@1@@Z
	??$_Resize_reallocate@U_Value_init_tag@std@@@?$vector@PEAVKernel@Gfx@Component@LoFi@@V?$allocator@PEAVKernel@Gfx@Component@LoFi@@@std@@@std@@AEAAX_KAEBU_Value_init_tag@1@@Z
	??$_Resize_reallocate@U_Value_init_tag@std@@@?$vector@PEAVNode@tf@@V?$allocator@PEAVNode@tf@@@std@@@std@@AEAAX_KAEBU_Value_init_tag@1@@Z
	??$_Resize_reallocate@U_Value_init_tag@std@@@?$vector@PEAVProgram@Gfx@Component@LoFi@@V?$allocator@PEAVProgram@Gfx@Component@LoFi@@@std@@@std@@AEAAX_KAEBU_Value_init_tag@1@@Z
	??$_Resize_reallocate@U_Value_init_tag@std@@@?$vector@PEAVSwapchain@Gfx@Component@LoFi@@V?$allocator@PEAVSwapchain@Gfx@Component@LoFi@@@std@@@std@@AEAAX_KAEBU_Value_init_tag@1@@Z
	??$_Resize_reallocate@U_Value_init_tag@std@@@?$vector@PEAVTexture@Gfx@Component@LoFi@@V?$allocator@PEAVTexture@Gfx@Component@LoFi@@@std@@@std@@AEAAX_KAEBU_Value_init_tag@1@@Z
	??$_Resize_reallocate@U_Value_init_tag@std@@@?$vector@PEAVWindow@Gfx@Component@LoFi@@V?$allocator@PEAVWindow@Gfx@Component@LoFi@@@std@@@std@@AEAAX_KAEBU_Value_init_tag@1@@Z
	??$_Resize_reallocate@U_Value_init_tag@std@@@?$vector@UVkQueueFamilyProperties@@V?$allocator@UVkQueueFamilyProperties@@@std@@@std@@AEAAX_KAEBU_Value_init_tag@1@@Z
	??$_Resize_reallocate@U_Value_init_tag@std@@@?$vector@V?$stack@V?$time_point@Usteady_clock@chrono@std@@V?$duration@_JU?$ratio@$00$0DLJKMKAA@@std@@@23@@chrono@std@@V?$deque@V?$time_point@Usteady_clock@chrono@std@@V?$duration@_JU?$ratio@$00$0DLJKMKAA@@std@@@23@@chrono@std@@V?$allocator@V?$time_point@Usteady_clock@chrono@std@@V?$duration@_JU?$ratio@$00$0DLJKMKAA@@std@@@23@@chrono@std@@@3@@3@@std@@V?$allocator@V?$stack@V?$time_point@Usteady_clock@chrono@std@@V?$duration@_JU?$ratio@$00$0DLJKMKAA@@std@@@23@@chrono@std@@V?$deque@V?$time_point@Usteady_clock@chrono@std@@V?$duration@_JU?$ratio@$00$0DLJKMKAA@@std@@@23@@chrono@std@@V?$allocator@V?$time_point@Usteady_clock@chrono@std@@V?$duration@_JU?$ratio@$00$0DLJKMKAA@@std@@@23@@chrono@std@@@3@@3@@std@@@2@@std@@AEAAX_KAEBU_Value_init_tag@1@@Z
	??$_Resize_reallocate@U_Value_init_tag@std@@@?$vector@V?$vector@USegment@tf@@V?$allocator@USegment@tf@@@std@@@std@@V?$allocator@V?$vector@USegment@tf@@V?$allocator@USegment@tf@@@std@@@std@@@2@@std@@AEAAX_KAEBU_Value_init_tag@1@@Z
	??$_Resize_reallocate@U_Value_init_tag@std@@@?$vector@V?$vector@V?$vector@USegment@tf@@V?$allocator@USegment@tf@@@std@@@std@@V?$allocator@V?$vector@USegment@tf@@V?$allocator@USegment@tf@@@std@@@std@@@2@@std@@V?$allocator@V?$vector@V?$vector@USegment@tf@@V?$allocator@USegment@tf@@@std@@@std@@V?$allocator@V?$vector@USegment@tf@@V?$allocator@USegment@tf@@@std@@@std@@@2@@std@@@2@@std@@AEAAX_KAEBU_Value_init_tag@1@@Z
	??$_Resize_reallocate@U_Value_init_tag@std@@@?$vector@_KV?$allocator@_K@std@@@std@@AEAAX_KAEBU_Value_init_tag@1@@Z
	??$_UIntegral_to_string@DI@std@@YA?AV?$basic_string@DU?$char_traits@D@std@@V?$allocator@D@2@@0@I@Z
	??$_UIntegral_to_string@D_K@std@@YA?AV?$basic_string@DU?$char_traits@D@std@@V?$allocator@D@2@@0@_K@Z
	??$_Uninitialized_copy_n@PEAU?$dense_map_node@V?$basic_string@DU?$char_traits@D@std@@V?$allocator@D@2@@std@@UPushConstantMemberInfo@Gfx@Component@LoFi@@@internal@entt@@V?$allocator@U?$dense_map_node@V?$basic_string@DU?$char_traits@D@std@@V?$allocator@D@2@@std@@UPushConstantMemberInfo@Gfx@Component@LoFi@@@internal@entt@@@std@@@std@@YAPEAU?$dense_map_node@V?$basic_string@DU?$char_traits@D@std@@V?$allocator@D@2@@std@@UPushConstantMemberInfo@Gfx@Component@LoFi@@@internal@entt@@PEAU123@_K0AEAV?$allocator@U?$dense_map_node@V?$basic_string@DU?$char_traits@D@std@@V?$allocator@D@2@@std@@UPushConstantMemberInfo@Gfx@Component@LoFi@@@internal@entt@@@0@@Z
	??$_Visit@U?$_Arg_formatter@V?$back_insert_iterator@V?$_Fmt_buffer@D@std@@@std@@D@__p2286@std@@@?$basic_format_arg@V?$basic_format_context@V?$back_insert_iterator@V?$_Fmt_buffer@D@std@@@std@@D@std@@@std@@QEAA?A?<decltype-auto>@@$$QEAU?$_Arg_formatter@V?$back_insert_iterator@V?$_Fmt_buffer@D@std@@@std@@D@__p2286@1@@Z
	??$_Visit@U?$_Default_arg_formatter@V?$back_insert_iterator@V?$_Fmt_buffer@D@std@@@std@@D@__p2286@std@@@?$basic_format_arg@V?$basic_format_context@V?$back_insert_iterator@V?$_Fmt_buffer@D@std@@@std@@D@std@@@std@@QEAA?A?<decltype-auto>@@$$QEAU?$_Default_arg_formatter@V?$back_insert_iterator@V?$_Fmt_buffer@D@std@@@std@@D@__p2286@1@@Z
	??$_Visit@V<lambda_1>@?0??_Destroy@?$_Variant_base@Umonostate@std@@UStatic@Node@tf@@USubflow@45@UCondition@45@UMultiCondition@45@UModule@45@UAsync@45@UDependentAsync@45@@std@@QEAAXXZ@AEAV?$_Variant_storage_@$0A@Umonostate@std@@UStatic@Node@tf@@USubflow@45@UCondition@45@UMultiCondition@45@UModule@45@UAsync@45@UDependentAsync@45@@4@@?$_Variant_raw_visit1@$01@std@@SAX_K$$QEAV<lambda_1>@?0??_Destroy@?$_Variant_base@Umonostate@std@@UStatic@Node@tf@@USubflow@45@UCondition@45@UMultiCondition@45@UModule@45@UAsync@45@UDependentAsync@45@@1@QEAAXXZ@AEAV?$_Variant_storage_@$0A@Umonostate@std@@UStatic@Node@tf@@USubflow@45@UCondition@45@UMultiCondition@45@UModule@45@UAsync@45@UDependentAsync@45@@1@@Z
	??$_Visit@V_Precision_checker@std@@@?$basic_format_arg@V?$basic_format_context@V?$back_insert_iterator@V?$_Fmt_buffer@D@std@@@std@@D@std@@@std@@QEAA?A?<decltype-auto>@@$$QEAV_Precision_checker@1@@Z
	??$_Visit@V_Width_checker@std@@@?$basic_format_arg@V?$basic_format_context@V?$back_insert_iterator@V?$_Fmt_buffer@D@std@@@std@@D@std@@@std@@QEAA?A?<decltype-auto>@@$$QEAV_Width_checker@1@@Z
	??$_Write_aligned@V?$back_insert_iterator@V?$_Fmt_buffer@D@std@@@std@@U?$_Basic_format_specs@D@2@AEAV<lambda_1>@?0???$_Fmt_write@DV?$back_insert_iterator@V?$_Fmt_buffer@D@std@@@std@@M@__p2286@2@YA?AV12@V12@MAEBU32@V_Lazy_locale@2@@Z@@__p2286@std@@YA?AV?$back_insert_iterator@V?$_Fmt_buffer@D@std@@@1@V21@HAEBU?$_Basic_format_specs@D@1@W4_Fmt_align@1@AEAV<lambda_1>@?0???$_Fmt_write@DV?$back_insert_iterator@V?$_Fmt_buffer@D@std@@@std@@M@01@YA?AV21@0M1V_Lazy_locale@1@@Z@@Z
	??$_Write_aligned@V?$back_insert_iterator@V?$_Fmt_buffer@D@std@@@std@@U?$_Basic_format_specs@D@2@AEAV<lambda_1>@?0???$_Fmt_write@DV?$back_insert_iterator@V?$_Fmt_buffer@D@std@@@std@@N@__p2286@2@YA?AV12@V12@NAEBU32@V_Lazy_locale@2@@Z@@__p2286@std@@YA?AV?$back_insert_iterator@V?$_Fmt_buffer@D@std@@@1@V21@HAEBU?$_Basic_format_specs@D@1@W4_Fmt_align@1@AEAV<lambda_1>@?0???$_Fmt_write@DV?$back_insert_iterator@V?$_Fmt_buffer@D@std@@@std@@N@01@YA?AV21@0N1V_Lazy_locale@1@@Z@@Z
	??$_Write_aligned@V?$back_insert_iterator@V?$_Fmt_buffer@D@std@@@std@@U?$_Basic_format_specs@D@2@AEAV<lambda_1>@?0???$_Fmt_write@DV?$back_insert_iterator@V?$_Fmt_buffer@D@std@@@std@@O@__p2286@2@YA?AV12@V12@OAEBU32@V_Lazy_locale@2@@Z@@__p2286@std@@YA?AV?$back_insert_iterator@V?$_Fmt_buffer@D@std@@@1@V21@HAEBU?$_Basic_format_specs@D@1@W4_Fmt_align@1@AEAV<lambda_1>@?0???$_Fmt_write@DV?$back_insert_iterator@V?$_Fmt_buffer@D@std@@@std@@O@01@YA?AV21@0O1V_Lazy_locale@1@@Z@@Z
	??$_Write_aligned@V?$back_insert_iterator@V?$_Fmt_buffer@D@std@@@std@@U?$_Basic_format_specs@D@2@AEAV<lambda_1>@?0???$_Write_integral@DV?$back_insert_iterator@V?$_Fmt_buffer@D@std@@@std@@D@__p2286@2@YA?AV12@V12@DU32@V_Lazy_locale@2@@Z@@__p2286@std@@YA?AV?$back_insert_iterator@V?$_Fmt_buffer@D@std@@@1@V21@HAEBU?$_Basic_format_specs@D@1@W4_Fmt_align@1@AEAV<lambda_1>@?0???$_Write_integral@DV?$back_insert_iterator@V?$_Fmt_buffer@D@std@@@std@@D@01@YA?AV21@0DU31@V_Lazy_locale@1@@Z@@Z
	??$_Write_aligned@V?$back_insert_iterator@V?$_Fmt_buffer@D@std@@@std@@U?$_Basic_format_specs@D@2@AEAV<lambda_1>@?0???$_Write_integral@DV?$back_insert_iterator@V?$_Fmt_buffer@D@std@@@std@@E@__p2286@2@YA?AV12@V12@EU32@V_Lazy_locale@2@@Z@@__p2286@std@@YA?AV?$back_insert_iterator@V?$_Fmt_buffer@D@std@@@1@V21@HAEBU?$_Basic_format_specs@D@1@W4_Fmt_align@1@AEAV<lambda_1>@?0???$_Write_integral@DV?$back_insert_iterator@V?$_Fmt_buffer@D@std@@@std@@E@01@YA?AV21@0EU31@V_Lazy_locale@1@@Z@@Z
	??$_Write_aligned@V?$back_insert_iterator@V?$_Fmt_buffer@D@std@@@std@@U?$_Basic_format_specs@D@2@AEAV<lambda_1>@?0???$_Write_integral@DV?$back_insert_iterator@V?$_Fmt_buffer@D@std@@@std@@H@__p2286@2@YA?AV12@V12@HU32@V_Lazy_locale@2@@Z@@__p2286@std@@YA?AV?$back_insert_iterator@V?$_Fmt_buffer@D@std@@@1@V21@HAEBU?$_Basic_format_specs@D@1@W4_Fmt_align@1@AEAV<lambda_1>@?0???$_Write_integral@DV?$back_insert_iterator@V?$_Fmt_buffer@D@std@@@std@@H@01@YA?AV21@0HU31@V_Lazy_locale@1@@Z@@Z
	??$_Write_aligned@V?$back_insert_iterator@V?$_Fmt_buffer@D@std@@@std@@U?$_Basic_format_specs@D@2@AEAV<lambda_1>@?0???$_Write_integral@DV?$back_insert_iterator@V?$_Fmt_buffer@D@std@@@std@@I@__p2286@2@YA?AV12@V12@IU32@V_Lazy_locale@2@@Z@@__p2286@std@@YA?AV?$back_insert_iterator@V?$_Fmt_buffer@D@std@@@1@V21@HAEBU?$_Basic_format_specs@D@1@W4_Fmt_align@1@AEAV<lambda_1>@?0???$_Write_integral@DV?$back_insert_iterator@V?$_Fmt_buffer@D@std@@@std@@I@01@YA?AV21@0IU31@V_Lazy_locale@1@@Z@@Z
	??$_Write_aligned@V?$back_insert_iterator@V?$_Fmt_buffer@D@std@@@std@@U?$_Basic_format_specs@D@2@AEAV<lambda_1>@?0???$_Write_integral@DV?$back_insert_iterator@V?$_Fmt_buffer@D@std@@@std@@_J@__p2286@2@YA?AV12@V12@_JU32@V_Lazy_locale@2@@Z@@__p2286@std@@YA?AV?$back_insert_iterator@V?$_Fmt_buffer@D@std@@@1@V21@HAEBU?$_Basic_format_specs@D@1@W4_Fmt_align@1@AEAV<lambda_1>@?0???$_Write_integral@DV?$back_insert_iterator@V?$_Fmt_buffer@D@std@@@std@@_J@01@YA?AV21@0_JU31@V_Lazy_locale@1@@Z@@Z
	??$_Write_aligned@V?$back_insert_iterator@V?$_Fmt_buffer@D@std@@@std@@U?$_Basic_format_specs@D@2@AEAV<lambda_1>@?0???$_Write_integral@DV?$back_insert_iterator@V?$_Fmt_buffer@D@std@@@std@@_K@__p2286@2@YA?AV12@V12@_KU32@V_Lazy_locale@2@@Z@@__p2286@std@@YA?AV?$back_insert_iterator@V?$_Fmt_buffer@D@std@@@1@V21@HAEBU?$_Basic_format_specs@D@1@W4_Fmt_align@1@AEAV<lambda_1>@?0???$_Write_integral@DV?$back_insert_iterator@V?$_Fmt_buffer@D@std@@@std@@_K@01@YA?AV21@0_KU31@V_Lazy_locale@1@@Z@@Z
	??$_Write_aligned@V?$back_insert_iterator@V?$_Fmt_buffer@D@std@@@std@@U?$_Basic_format_specs@D@2@V<lambda_1>@?0???$_Fmt_write@DV?$back_insert_iterator@V?$_Fmt_buffer@D@std@@@std@@@__p2286@2@YA?AV12@V12@QEBXAEBU32@V_Lazy_locale@2@@Z@@__p2286@std@@YA?AV?$back_insert_iterator@V?$_Fmt_buffer@D@std@@@1@V21@HAEBU?$_Basic_format_specs@D@1@W4_Fmt_align@1@$$QEAV<lambda_1>@?0???$_Fmt_write@DV?$back_insert_iterator@V?$_Fmt_buffer@D@std@@@std@@@01@YA?AV21@0QEBX1V_Lazy_locale@1@@Z@@Z
	??$_Write_aligned@V?$back_insert_iterator@V?$_Fmt_buffer@D@std@@@std@@U?$_Basic_format_specs@D@2@V<lambda_1>@?0???$_Fmt_write@DV?$back_insert_iterator@V?$_Fmt_buffer@D@std@@@std@@@__p2286@2@YA?AV12@V12@V?$basic_string_view@DU?$char_traits@D@std@@@2@AEBU32@V_Lazy_locale@2@@Z@@__p2286@std@@YA?AV?$back_insert_iterator@V?$_Fmt_buffer@D@std@@@1@V21@HAEBU?$_Basic_format_specs@D@1@W4_Fmt_align@1@$$QEAV<lambda_1>@?0???$_Fmt_write@DV?$back_insert_iterator@V?$_Fmt_buffer@D@std@@@std@@@01@YA?AV21@0V?$basic_string_view@DU?$char_traits@D@std@@@1@1V_Lazy_locale@1@@Z@@Z
	??$_Write_aligned@V?$back_insert_iterator@V?$_Fmt_buffer@D@std@@@std@@U?$_Basic_format_specs@D@2@V<lambda_1>@?0???$_Write_escaped@DV?$back_insert_iterator@V?$_Fmt_buffer@D@std@@@std@@@__p2286@2@YA?AV12@V12@V?$basic_string_view@DU?$char_traits@D@std@@@2@U32@D@Z@@__p2286@std@@YA?AV?$back_insert_iterator@V?$_Fmt_buffer@D@std@@@1@V21@HAEBU?$_Basic_format_specs@D@1@W4_Fmt_align@1@$$QEAV<lambda_1>@?0???$_Write_escaped@DV?$back_insert_iterator@V?$_Fmt_buffer@D@std@@@std@@@01@YA?AV21@0V?$basic_string_view@DU?$char_traits@D@std@@@1@U31@D@Z@@Z
	??$_Write_escaped@DV?$back_insert_iterator@V?$_Fmt_buffer@D@std@@@std@@@__p2286@std@@YA?AV?$back_insert_iterator@V?$_Fmt_buffer@D@std@@@1@V21@V?$basic_string_view@DU?$char_traits@D@std@@@1@D@Z
	??$_Write_escaped@DV?$back_insert_iterator@V?$_Fmt_buffer@D@std@@@std@@@__p2286@std@@YA?AV?$back_insert_iterator@V?$_Fmt_buffer@D@std@@@1@V21@V?$basic_string_view@DU?$char_traits@D@std@@@1@U?$_Basic_format_specs@D@1@D@Z
	??$_Write_integral@DV?$back_insert_iterator@V?$_Fmt_buffer@D@std@@@std@@D@__p2286@std@@YA?AV?$back_insert_iterator@V?$_Fmt_buffer@D@std@@@1@V21@DU?$_Basic_format_specs@D@1@V_Lazy_locale@1@@Z
	??$_Write_integral@DV?$back_insert_iterator@V?$_Fmt_buffer@D@std@@@std@@E@__p2286@std@@YA?AV?$back_insert_iterator@V?$_Fmt_buffer@D@std@@@1@V21@EU?$_Basic_format_specs@D@1@V_Lazy_locale@1@@Z
	??$_Write_integral@DV?$back_insert_iterator@V?$_Fmt_buffer@D@std@@@std@@H@__p2286@std@@YA?AV?$back_insert_iterator@V?$_Fmt_buffer@D@std@@@1@V21@HU?$_Basic_format_specs@D@1@V_Lazy_locale@1@@Z
	??$_Write_integral@DV?$back_insert_iterator@V?$_Fmt_buffer@D@std@@@std@@I@__p2286@std@@YA?AV?$back_insert_iterator@V?$_Fmt_buffer@D@std@@@1@V21@IU?$_Basic_format_specs@D@1@V_Lazy_locale@1@@Z
	??$_Write_integral@DV?$back_insert_iterator@V?$_Fmt_buffer@D@std@@@std@@_J@__p2286@std@@YA?AV?$back_insert_iterator@V?$_Fmt_buffer@D@std@@@1@V21@_JU?$_Basic_format_specs@D@1@V_Lazy_locale@1@@Z
	??$_Write_integral@DV?$back_insert_iterator@V?$_Fmt_buffer@D@std@@@std@@_K@__p2286@std@@YA?AV?$back_insert_iterator@V?$_Fmt_buffer@D@std@@@1@V21@_KU?$_Basic_format_specs@D@1@V_Lazy_locale@1@@Z
	??$_Write_separated_integer@DV?$back_insert_iterator@V?$_Fmt_buffer@D@std@@@std@@@__p2286@std@@YA?AV?$back_insert_iterator@V?$_Fmt_buffer@D@std@@@1@PEBDQEBDV?$basic_string_view@DU?$char_traits@D@std@@@1@DHV21@@Z
	??$__d2fixed_buffered_n@D@std@@YA?AU?$pair@PEADW4errc@std@@@0@PEADQEADNI@Z
	??$__d2s_buffered_n@D@std@@YA?AU?$pair@PEADW4errc@std@@@0@QEAD0NW4chars_format@0@@Z
	??$__f2s_buffered_n@D@std@@YA?AU?$pair@PEADW4errc@std@@@0@QEAD0MW4chars_format@0@@Z
	??$__to_chars@D@std@@YA?AU?$pair@PEADW4errc@std@@@0@QEAD0U__floating_decimal_32@0@W4chars_format@0@II@Z
	??$__to_chars@D@std@@YA?AU?$pair@PEADW4errc@std@@@0@QEAD0U__floating_decimal_64@0@W4chars_format@0@N@Z
	??$_corun_until@V<lambda_1>@?0???1Runtime@tf@@QEAA@XZ@@Executor@tf@@AEAAXAEAVWorker@1@$$QEAV<lambda_1>@?0???1Runtime@1@QEAA@XZ@@Z
	??$_corun_until@V<lambda_1>@?0??_corun_graph@Executor@tf@@AEAAXAEAVWorker@4@PEAVNode@4@AEAVGraph@4@@Z@@Executor@tf@@AEAAXAEAVWorker@1@$$QEAV<lambda_1>@?0??_corun_graph@01@AEAAX0PEAVNode@1@AEAVGraph@1@@Z@@Z
	??$_save@AEBV?$vector@USegment@tf@@V?$allocator@USegment@tf@@@std@@@std@@$0A@@?$Serializer@V?$basic_ofstream@DU?$char_traits@D@std@@@std@@_J@tf@@AEAA_JAEBV?$vector@USegment@tf@@V?$allocator@USegment@tf@@@std@@@std@@@Z
	??$_save@AEBV?$vector@V?$vector@V?$vector@USegment@tf@@V?$allocator@USegment@tf@@@std@@@std@@V?$allocator@V?$vector@USegment@tf@@V?$allocator@USegment@tf@@@std@@@std@@@2@@std@@V?$allocator@V?$vector@V?$vector@USegment@tf@@V?$allocator@USegment@tf@@@std@@@std@@V?$allocator@V?$vector@USegment@tf@@V?$allocator@USegment@tf@@@std@@@std@@@2@@std@@@2@@std@@$0A@@?$Serializer@V?$basic_ofstream@DU?$char_traits@D@std@@@std@@_J@tf@@AEAA_JAEBV?$vector@V?$vector@V?$vector@USegment@tf@@V?$allocator@USegment@tf@@@std@@@std@@V?$allocator@V?$vector@USegment@tf@@V?$allocator@USegment@tf@@@std@@@std@@@2@@std@@V?$allocator@V?$vector@V?$vector@USegment@tf@@V?$allocator@USegment@tf@@@std@@@std@@V?$allocator@V?$vector@USegment@tf@@V?$allocator@USegment@tf@@@std@@@std@@@2@@std@@@2@@std@@@Z
	??$any_cast@V?$basic_registry@W4entity@entt@@V?$allocator@W4entity@entt@@@std@@@entt@@$0BA@$07@entt@@YAPEAV?$basic_registry@W4entity@entt@@V?$allocator@W4entity@entt@@@std@@@0@PEAV?$basic_any@$0BA@$07@0@@Z
	??$assure@UTagDataChanged@Gfx@Component@LoFi@@@?$basic_registry@W4entity@entt@@V?$allocator@W4entity@entt@@@std@@@entt@@AEAA?A?<auto>@@I@Z
	??$assure@UTagDataUpdateCompleted@Gfx@Component@LoFi@@@?$basic_registry@W4entity@entt@@V?$allocator@W4entity@entt@@@std@@@entt@@AEAA?A?<auto>@@I@Z
	??$assure@VBuffer3F@Gfx@Component@LoFi@@@?$basic_registry@W4entity@entt@@V?$allocator@W4entity@entt@@@std@@@entt@@AEAA?A?<auto>@@I@Z
	??$assure@VBuffer@Gfx@Component@LoFi@@@?$basic_registry@W4entity@entt@@V?$allocator@W4entity@entt@@@std@@@entt@@AEAA?A?<auto>@@I@Z
	??$assure@VKernel@Gfx@Component@LoFi@@@?$basic_registry@W4entity@entt@@V?$allocator@W4entity@entt@@@std@@@entt@@AEAA?A?<auto>@@I@Z
	??$assure@VProgram@Gfx@Component@LoFi@@@?$basic_registry@W4entity@entt@@V?$allocator@W4entity@entt@@@std@@@entt@@AEAA?A?<auto>@@I@Z
	??$assure@VSwapchain@Gfx@Component@LoFi@@@?$basic_registry@W4entity@entt@@V?$allocator@W4entity@entt@@@std@@@entt@@AEAA?A?<auto>@@I@Z
	??$assure@VTexture@Gfx@Component@LoFi@@@?$basic_registry@W4entity@entt@@V?$allocator@W4entity@entt@@@std@@@entt@@AEAA?A?<auto>@@I@Z
	??$assure@VWindow@Gfx@Component@LoFi@@@?$basic_registry@W4entity@entt@@V?$allocator@W4entity@entt@@@std@@@entt@@AEAA?A?<auto>@@I@Z
	??$basic_vtable@V?$basic_registry@W4entity@entt@@V?$allocator@W4entity@entt@@@std@@@entt@@@?$basic_any@$0BA@$07@entt@@CAPEBXW4any_operation@internal@1@AEBV01@PEBX@Z
	??$call_once@V<lambda_1>@?0??_GetStaticAmbientSchedulerRef@details@Concurrency@@YAAEAV?$shared_ptr@Uscheduler_interface@Concurrency@@@std@@XZ@$$V@std@@YAXAEAUonce_flag@0@$$QEAV<lambda_1>@?0??_GetStaticAmbientSchedulerRef@details@Concurrency@@YAAEAV?$shared_ptr@Uscheduler_interface@Concurrency@@@0@XZ@@Z
	??$dequeue@UContextResourceRecoveryInfo@Internal@LoFi@@@ImplicitProducer@?$ConcurrentQueue@UContextResourceRecoveryInfo@Internal@LoFi@@UConcurrentQueueDefaultTraits@moodycamel@@@moodycamel@@QEAA_NAEAUContextResourceRecoveryInfo@Internal@LoFi@@@Z
	??$destroy_at@U?$pair@$$CBV?$basic_string@DU?$char_traits@D@std@@V?$allocator@D@2@@std@@V?$unordered_map@V?$basic_string@DU?$char_traits@D@std@@V?$allocator@D@2@@std@@_KU?$hash@V?$basic_string@DU?$char_traits@D@std@@V?$allocator@D@2@@std@@@2@U?$equal_to@V?$basic_string@DU?$char_traits@D@std@@V?$allocator@D@2@@std@@@2@V?$allocator@U?$pair@$$CBV?$basic_string@DU?$char_traits@D@std@@V?$allocator@D@2@@std@@_K@std@@@2@@2@@std@@@std@@YAXQEAU?$pair@$$CBV?$basic_string@DU?$char_traits@D@std@@V?$allocator@D@2@@std@@V?$unordered_map@V?$basic_string@DU?$char_traits@D@std@@V?$allocator@D@2@@std@@_KU?$hash@V?$basic_string@DU?$char_traits@D@std@@V?$allocator@D@2@@std@@@2@U?$equal_to@V?$basic_string@DU?$char_traits@D@std@@V?$allocator@D@2@@std@@@2@V?$allocator@U?$pair@$$CBV?$basic_string@DU?$char_traits@D@std@@V?$allocator@D@2@@std@@_K@std@@@2@@2@@0@@Z
	??$emplace@AEBU?$pair@$$CBV?$basic_string@DU?$char_traits@D@std@@V?$allocator@D@2@@std@@V?$unordered_map@V?$basic_string@DU?$char_traits@D@std@@V?$allocator@D@2@@std@@_KU?$hash@V?$basic_string@DU?$char_traits@D@std@@V?$allocator@D@2@@std@@@2@U?$equal_to@V?$basic_string@DU?$char_traits@D@std@@V?$allocator@D@2@@std@@@2@V?$allocator@U?$pair@$$CBV?$basic_string@DU?$char_traits@D@std@@V?$allocator@D@2@@std@@_K@std@@@2@@2@@std@@@?$_Hash@V?$_Umap_traits@V?$basic_string@DU?$char_traits@D@std@@V?$allocator@D@2@@std@@V?$unordered_map@V?$basic_string@DU?$char_traits@D@std@@V?$allocator@D@2@@std@@_KU?$hash@V?$basic_string@DU?$char_traits@D@std@@V?$allocator@D@2@@std@@@2@U?$equal_to@V?$basic_string@DU?$char_traits@D@std@@V?$allocator@D@2@@std@@@2@V?$allocator@U?$pair@$$CBV?$basic_string@DU?$char_traits@D@std@@V?$allocator@D@2@@std@@_K@std@@@2@@2@V?$_Uhash_compare@V?$basic_string@DU?$char_traits@D@std@@V?$allocator@D@2@@std@@U?$hash@V?$basic_string@DU?$char_traits@D@std@@V?$allocator@D@2@@std@@@2@U?$equal_to@V?$basic_string@DU?$char_traits@D@std@@V?$allocator@D@2@@std@@@2@@2@V?$allocator@U?$pair@$$CBV?$basic_string@DU?$char_traits@D@std@@V?$allocator@D@2@@std@@V?$unordered_map@V?$basic_string@DU?$char_traits@D@std@@V?$allocator@D@2@@std@@_KU?$hash@V?$basic_string@DU?$char_traits@D@std@@V?$allocator@D@2@@std@@@2@U?$equal_to@V?$basic_string@DU?$char_traits@D@std@@V?$allocator@D@2@@std@@@2@V?$allocator@U?$pair@$$CBV?$basic_string@DU?$char_traits@D@std@@V?$allocator@D@2@@std@@_K@std@@@2@@2@@std@@@2@$0A@@std@@@std@@QEAA?AU?$pair@V?$_List_iterator@V?$_List_val@U?$_List_simple_types@U?$pair@$$CBV?$basic_string@DU?$char_traits@D@std@@V?$allocator@D@2@@std@@V?$unordered_map@V?$basic_string@DU?$char_traits@D@std@@V?$allocator@D@2@@std@@_KU?$hash@V?$basic_string@DU?$char_traits@D@std@@V?$allocator@D@2@@std@@@2@U?$equal_to@V?$basic_string@DU?$char_traits@D@std@@V?$allocator@D@2@@std@@@2@V?$allocator@U?$pair@$$CBV?$basic_string@DU?$char_traits@D@std@@V?$allocator@D@2@@std@@_K@std@@@2@@2@@std@@@std@@@std@@@std@@_N@1@AEBU?$pair@$$CBV?$basic_string@DU?$char_traits@D@std@@V?$allocator@D@2@@std@@V?$unordered_map@V?$basic_string@DU?$char_traits@D@std@@V?$allocator@D@2@@std@@_KU?$hash@V?$basic_string@DU?$char_traits@D@std@@V?$allocator@D@2@@std@@@2@U?$equal_to@V?$basic_string@DU?$char_traits@D@std@@V?$allocator@D@2@@std@@@2@V?$allocator@U?$pair@$$CBV?$basic_string@DU?$char_traits@D@std@@V?$allocator@D@2@@std@@_K@std@@@2@@2@@1@@Z
	??$emplace@AEBU?$pair@$$CBV?$basic_string@DU?$char_traits@D@std@@V?$allocator@D@2@@std@@W4VkFormat@@@std@@@?$_Hash@V?$_Umap_traits@V?$basic_string@DU?$char_traits@D@std@@V?$allocator@D@2@@std@@W4VkFormat@@V?$_Uhash_compare@V?$basic_string@DU?$char_traits@D@std@@V?$allocator@D@2@@std@@U?$hash@V?$basic_string@DU?$char_traits@D@std@@V?$allocator@D@2@@std@@@2@U?$equal_to@V?$basic_string@DU?$char_traits@D@std@@V?$allocator@D@2@@std@@@2@@2@V?$allocator@U?$pair@$$CBV?$basic_string@DU?$char_traits@D@std@@V?$allocator@D@2@@std@@W4VkFormat@@@std@@@2@$0A@@std@@@std@@QEAA?AU?$pair@V?$_List_iterator@V?$_List_val@U?$_List_simple_types@U?$pair@$$CBV?$basic_string@DU?$char_traits@D@std@@V?$allocator@D@2@@std@@W4VkFormat@@@std@@@std@@@std@@@std@@_N@1@AEBU?$pair@$$CBV?$basic_string@DU?$char_traits@D@std@@V?$allocator@D@2@@std@@W4VkFormat@@@1@@Z
	??$emplace@AEBU?$pair@$$CBV?$basic_string@DU?$char_traits@D@std@@V?$allocator@D@2@@std@@_K@std@@@?$_Hash@V?$_Umap_traits@V?$basic_string@DU?$char_traits@D@std@@V?$allocator@D@2@@std@@_KV?$_Uhash_compare@V?$basic_string@DU?$char_traits@D@std@@V?$allocator@D@2@@std@@U?$hash@V?$basic_string@DU?$char_traits@D@std@@V?$allocator@D@2@@std@@@2@U?$equal_to@V?$basic_string@DU?$char_traits@D@std@@V?$allocator@D@2@@std@@@2@@2@V?$allocator@U?$pair@$$CBV?$basic_string@DU?$char_traits@D@std@@V?$allocator@D@2@@std@@_K@std@@@2@$0A@@std@@@std@@QEAA?AU?$pair@V?$_List_iterator@V?$_List_val@U?$_List_simple_types@U?$pair@$$CBV?$basic_string@DU?$char_traits@D@std@@V?$allocator@D@2@@std@@_K@std@@@std@@@std@@@std@@_N@1@AEBU?$pair@$$CBV?$basic_string@DU?$char_traits@D@std@@V?$allocator@D@2@@std@@_K@1@@Z
	??$emplace@AEBUpiecewise_construct_t@std@@V?$tuple@$$QEAVid@thread@std@@@2@V?$tuple@AEA_K@2@@?$_Hash@V?$_Umap_traits@Vid@thread@std@@_KV?$_Uhash_compare@Vid@thread@std@@U?$hash@Vid@thread@std@@@3@U?$equal_to@Vid@thread@std@@@3@@3@V?$allocator@U?$pair@$$CBVid@thread@std@@_K@std@@@3@$0A@@std@@@std@@QEAA?AU?$pair@V?$_List_iterator@V?$_List_val@U?$_List_simple_types@U?$pair@$$CBVid@thread@std@@_K@std@@@std@@@std@@@std@@_N@1@AEBUpiecewise_construct_t@1@$$QEAV?$tuple@$$QEAVid@thread@std@@@1@$$QEAV?$tuple@AEA_K@1@@Z
	??$emplace@V?$shared_ptr@VObserverInterface@tf@@@std@@@?$_Hash@V?$_Uset_traits@V?$shared_ptr@VObserverInterface@tf@@@std@@V?$_Uhash_compare@V?$shared_ptr@VObserverInterface@tf@@@std@@U?$hash@V?$shared_ptr@VObserverInterface@tf@@@std@@@2@U?$equal_to@V?$shared_ptr@VObserverInterface@tf@@@std@@@2@@2@V?$allocator@V?$shared_ptr@VObserverInterface@tf@@@std@@@2@$0A@@std@@@std@@QEAA?AU?$pair@V?$_List_const_iterator@V?$_List_val@U?$_List_simple_types@V?$shared_ptr@VObserverInterface@tf@@@std@@@std@@@std@@@std@@_N@1@$$QEAV?$shared_ptr@VObserverInterface@tf@@@1@@Z
	??$emplace_element@AEAW4entity@entt@@@?$basic_storage@VSwapchain@Gfx@Component@LoFi@@W4entity@entt@@V?$allocator@VSwapchain@Gfx@Component@LoFi@@@std@@X@entt@@AEAA?A?<auto>@@W4entity@1@_NAEAW431@@Z
	??$emplace_element@AEAW4entity@entt@@AEAPEBDHH@?$basic_storage@VWindow@Gfx@Component@LoFi@@W4entity@entt@@V?$allocator@VWindow@Gfx@Component@LoFi@@@std@@X@entt@@AEAA?A?<auto>@@W4entity@1@_NAEAW431@AEAPEBD$$QEAH4@Z
	??$emplace_element@AEAW4entity@entt@@AEAUVkBufferCreateInfo@@AEAUVmaAllocationCreateInfo@@@?$basic_storage@VBuffer@Gfx@Component@LoFi@@W4entity@entt@@V?$allocator@VBuffer@Gfx@Component@LoFi@@@std@@X@entt@@AEAA?A?<auto>@@W4entity@1@_NAEAW431@AEAUVkBufferCreateInfo@@AEAUVmaAllocationCreateInfo@@@Z
	??$emplace_element@AEAW4entity@entt@@AEAUVkImageCreateInfo@@AEAUVmaAllocationCreateInfo@@@?$basic_storage@VTexture@Gfx@Component@LoFi@@W4entity@entt@@V?$allocator@VTexture@Gfx@Component@LoFi@@@std@@X@entt@@AEAA?A?<auto>@@W4entity@1@_NAEAW431@AEAUVkImageCreateInfo@@AEAUVmaAllocationCreateInfo@@@Z
	??$emplace_element@AEAW4entity@entt@@AEAV?$basic_string_view@DU?$char_traits@D@std@@@std@@AEAV34@AEBV?$vector@V?$basic_string_view@DU?$char_traits@D@std@@@std@@V?$allocator@V?$basic_string_view@DU?$char_traits@D@std@@@std@@@2@@4@@?$basic_storage@VProgram@Gfx@Component@LoFi@@W4entity@entt@@V?$allocator@VProgram@Gfx@Component@LoFi@@@std@@X@entt@@AEAA?A?<auto>@@W4entity@1@_NAEAW431@AEAV?$basic_string_view@DU?$char_traits@D@std@@@std@@3AEBV?$vector@V?$basic_string_view@DU?$char_traits@D@std@@@std@@V?$allocator@V?$basic_string_view@DU?$char_traits@D@std@@@std@@@2@@5@@Z
	??$emplace_element@AEAW4entity@entt@@AEAW412@@?$basic_storage@VKernel@Gfx@Component@LoFi@@W4entity@entt@@V?$allocator@VKernel@Gfx@Component@LoFi@@@std@@X@entt@@AEAA?A?<auto>@@W4entity@1@_NAEAW431@2@Z
	??$emplace_element@AEAW4entity@entt@@AEA_KAEA_N@?$basic_storage@VBuffer3F@Gfx@Component@LoFi@@W4entity@entt@@V?$allocator@VBuffer3F@Gfx@Component@LoFi@@@std@@X@entt@@AEAA?A?<auto>@@W4entity@1@_NAEAW431@AEA_KAEA_N@Z
	??$enqueue@$0A@AEBUContextResourceRecoveryInfo@Internal@LoFi@@@ImplicitProducer@?$ConcurrentQueue@UContextResourceRecoveryInfo@Internal@LoFi@@UConcurrentQueueDefaultTraits@moodycamel@@@moodycamel@@QEAA_NAEBUContextResourceRecoveryInfo@Internal@LoFi@@@Z
	??$eval@V<lambda_1>@?0???0?$TaskQueue@PEAVNode@tf@@$02@tf@@QEAA@_J@Z@@?$Unroll@$MH00$MI02$MH00$00@tf@@SAXV<lambda_1>@?0???0?$TaskQueue@PEAVNode@tf@@$02@1@QEAA@_J@Z@@Z
	??$eval@V<lambda_1>@?0???0?$TaskQueue@PEAVNode@tf@@$02@tf@@QEAA@_J@Z@@?$Unroll@$MH01$MI02$MH00$00@tf@@SAXV<lambda_1>@?0???0?$TaskQueue@PEAVNode@tf@@$02@1@QEAA@_J@Z@@Z
	??$eval@V<lambda_1>@?0???0?$TaskQueue@PEAVNode@tf@@$02@tf@@QEAA@_J@Z@@?$Unroll@$MH0A@$MI02$MH00$00@tf@@SAXV<lambda_1>@?0???0?$TaskQueue@PEAVNode@tf@@$02@1@QEAA@_J@Z@@Z
	??$eval@V<lambda_1>@?0???1?$TaskQueue@PEAVNode@tf@@$02@tf@@QEAA@XZ@@?$Unroll@$MH00$MI02$MH00$00@tf@@SAXV<lambda_1>@?0???1?$TaskQueue@PEAVNode@tf@@$02@1@QEAA@XZ@@Z
	??$eval@V<lambda_1>@?0???1?$TaskQueue@PEAVNode@tf@@$02@tf@@QEAA@XZ@@?$Unroll@$MH0A@$MI02$MH00$00@tf@@SAXV<lambda_1>@?0???1?$TaskQueue@PEAVNode@tf@@$02@1@QEAA@XZ@@Z
	??$format@AEAHAEBV?$basic_string@DU?$char_traits@D@std@@V?$allocator@D@2@@std@@AEBV12@@__p2286@std@@YA?AV?$basic_string@DU?$char_traits@D@std@@V?$allocator@D@2@@1@U?$basic_format_string@DAEAHAEBV?$basic_string@DU?$char_traits@D@std@@V?$allocator@D@2@@std@@AEBV12@@1@AEAHAEBV21@2@Z
	??$format@AEAIAEAIAEAIAEAI@__p2286@std@@YA?AV?$basic_string@DU?$char_traits@D@std@@V?$allocator@D@2@@1@U?$basic_format_string@DAEAIAEAIAEAIAEAI@1@AEAI111@Z
	??$format@AEAV?$basic_string@DU?$char_traits@D@std@@V?$allocator@D@2@@std@@@__p2286@std@@YA?AV?$basic_string@DU?$char_traits@D@std@@V?$allocator@D@2@@1@U?$basic_format_string@DAEAV?$basic_string@DU?$char_traits@D@std@@V?$allocator@D@2@@std@@@1@AEAV21@@Z
	??$format@AEAV?$basic_string@DU?$char_traits@D@std@@V?$allocator@D@2@@std@@AEAV12@@__p2286@std@@YA?AV?$basic_string@DU?$char_traits@D@std@@V?$allocator@D@2@@1@U?$basic_format_string@DAEAV?$basic_string@DU?$char_traits@D@std@@V?$allocator@D@2@@std@@AEAV12@@1@AEAV21@1@Z
	??$format@AEAV?$basic_string@DU?$char_traits@D@std@@V?$allocator@D@2@@std@@AEAV12@AEAV12@@__p2286@std@@YA?AV?$basic_string@DU?$char_traits@D@std@@V?$allocator@D@2@@1@U?$basic_format_string@DAEAV?$basic_string@DU?$char_traits@D@std@@V?$allocator@D@2@@std@@AEAV12@AEAV12@@1@AEAV21@11@Z
	??$format@AEA_K_K@__p2286@std@@YA?AV?$basic_string@DU?$char_traits@D@std@@V?$allocator@D@2@@1@U?$basic_format_string@DAEA_K_K@1@AEA_K$$QEA_K@Z
	??$format@AEBIAEBI@__p2286@std@@YA?AV?$basic_string@DU?$char_traits@D@std@@V?$allocator@D@2@@1@U?$basic_format_string@DAEBIAEBI@1@AEBI1@Z
	??$format@AEBIAEBIAEBI@__p2286@std@@YA?AV?$basic_string@DU?$char_traits@D@std@@V?$allocator@D@2@@1@U?$basic_format_string@DAEBIAEBIAEBI@1@AEBI11@Z
	??$format@AEBV?$basic_string@DU?$char_traits@D@std@@V?$allocator@D@2@@std@@@__p2286@std@@YA?AV?$basic_string@DU?$char_traits@D@std@@V?$allocator@D@2@@1@U?$basic_format_string@DAEBV?$basic_string@DU?$char_traits@D@std@@V?$allocator@D@2@@std@@@1@AEBV21@@Z
	??$format@AEBV?$basic_string@DU?$char_traits@D@std@@V?$allocator@D@2@@std@@AEBV12@@__p2286@std@@YA?AV?$basic_string@DU?$char_traits@D@std@@V?$allocator@D@2@@1@U?$basic_format_string@DAEBV?$basic_string@DU?$char_traits@D@std@@V?$allocator@D@2@@std@@AEBV12@@1@AEBV21@1@Z
	??$format@AEBV?$basic_string@DU?$char_traits@D@std@@V?$allocator@D@2@@std@@_K@__p2286@std@@YA?AV?$basic_string@DU?$char_traits@D@std@@V?$allocator@D@2@@1@U?$basic_format_string@DAEBV?$basic_string@DU?$char_traits@D@std@@V?$allocator@D@2@@std@@_K@1@AEBV21@$$QEA_K@Z
	??$format@HAEBV?$basic_string@DU?$char_traits@D@std@@V?$allocator@D@2@@std@@AEBV12@@__p2286@std@@YA?AV?$basic_string@DU?$char_traits@D@std@@V?$allocator@D@2@@1@U?$basic_format_string@DHAEBV?$basic_string@DU?$char_traits@D@std@@V?$allocator@D@2@@std@@AEBV12@@1@$$QEAHAEBV21@2@Z
	??$insert_or_do_nothing@$$CBW4glslang_stage_t@@V?$basic_string_view@DU?$char_traits@D@std@@@std@@@?$dense_map@W4glslang_stage_t@@V?$basic_string_view@DU?$char_traits@D@std@@@std@@U?$hash@W4glslang_stage_t@@@3@U?$equal_to@W4glslang_stage_t@@@3@V?$allocator@U?$pair@$$CBW4glslang_stage_t@@V?$basic_string_view@DU?$char_traits@D@std@@@std@@@std@@@3@@entt@@AEAA?A?<auto>@@$$QEBW4glslang_stage_t@@$$QEAV?$basic_string_view@DU?$char_traits@D@std@@@std@@@Z
	??$insert_or_do_nothing@AEAIAEAW4entity@entt@@@?$dense_map@IW4entity@entt@@U?$hash@I@std@@U?$equal_to@I@4@V?$allocator@U?$pair@$$CBIW4entity@entt@@@std@@@4@@entt@@AEAA?A?<auto>@@AEAIAEAW4entity@1@@Z
	??$insert_or_do_nothing@AEBI$$V@?$dense_map@IV?$shared_ptr@V?$basic_sparse_set@W4entity@entt@@V?$allocator@W4entity@entt@@@std@@@entt@@@std@@Uidentity@entt@@U?$equal_to@I@2@V?$allocator@U?$pair@$$CBIV?$shared_ptr@V?$basic_sparse_set@W4entity@entt@@V?$allocator@W4entity@entt@@@std@@@entt@@@std@@@std@@@2@@entt@@AEAA?A?<auto>@@AEBI@Z
	??$insert_or_do_nothing@AEBI$$V@?$dense_map@IW4VkVertexInputRate@@U?$hash@I@std@@U?$equal_to@I@3@V?$allocator@U?$pair@$$CBIW4VkVertexInputRate@@@std@@@3@@entt@@AEAA?A?<auto>@@AEBI@Z
	??$insert_or_do_nothing@AEBI$$V@?$dense_map@IW4entity@entt@@U?$hash@I@std@@U?$equal_to@I@4@V?$allocator@U?$pair@$$CBIW4entity@entt@@@std@@@4@@entt@@AEAA?A?<auto>@@AEBI@Z
	??$insert_or_do_nothing@AEBUVkSamplerCreateInfo@@AEAPEAUVkSampler_T@@@?$dense_map@UVkSamplerCreateInfo@@PEAUVkSampler_T@@USamplerCIHash@GfxContext@LoFi@@USamplerCIEqual@45@V?$allocator@U?$pair@$$CBUVkSamplerCreateInfo@@PEAUVkSampler_T@@@std@@@std@@@entt@@AEAA?A?<auto>@@AEBUVkSamplerCreateInfo@@AEAPEAUVkSampler_T@@@Z
	??$insert_or_do_nothing@AEBV?$basic_string@DU?$char_traits@D@std@@V?$allocator@D@2@@std@@UPushConstantMemberInfo@Gfx@Component@LoFi@@@?$dense_map@V?$basic_string@DU?$char_traits@D@std@@V?$allocator@D@2@@std@@UPushConstantMemberInfo@Gfx@Component@LoFi@@U?$hash@V?$basic_string@DU?$char_traits@D@std@@V?$allocator@D@2@@std@@@2@U?$equal_to@V?$basic_string@DU?$char_traits@D@std@@V?$allocator@D@2@@std@@@2@V?$allocator@U?$pair@$$CBV?$basic_string@DU?$char_traits@D@std@@V?$allocator@D@2@@std@@UPushConstantMemberInfo@Gfx@Component@LoFi@@@std@@@2@@entt@@AEAA?A?<auto>@@AEBV?$basic_string@DU?$char_traits@D@std@@V?$allocator@D@2@@std@@$$QEAUPushConstantMemberInfo@Gfx@Component@LoFi@@@Z
	??$insert_or_do_nothing@AEBW4entity@entt@@@?$dense_set@W4entity@entt@@U?$hash@W4entity@entt@@@std@@U?$equal_to@W4entity@entt@@@4@V?$allocator@W4entity@entt@@@4@@entt@@AEAA?A?<auto>@@AEBW4entity@1@@Z
	??$insert_or_do_nothing@AEBW4glslang_stage_t@@$$V@?$dense_map@W4glslang_stage_t@@U?$pair@V?$vector@IV?$allocator@I@std@@@std@@PEAUVkShaderModule_T@@@std@@U?$hash@W4glslang_stage_t@@@3@U?$equal_to@W4glslang_stage_t@@@3@V?$allocator@U?$pair@$$CBW4glslang_stage_t@@U?$pair@V?$vector@IV?$allocator@I@std@@@std@@PEAUVkShaderModule_T@@@std@@@std@@@3@@entt@@AEAA?A?<auto>@@AEBW4glslang_stage_t@@@Z
	??$insert_or_do_nothing@W4glslang_stage_t@@$$V@?$dense_map@W4glslang_stage_t@@U?$pair@V?$vector@IV?$allocator@I@std@@@std@@PEAUVkShaderModule_T@@@std@@U?$hash@W4glslang_stage_t@@@3@U?$equal_to@W4glslang_stage_t@@@3@V?$allocator@U?$pair@$$CBW4glslang_stage_t@@U?$pair@V?$vector@IV?$allocator@I@std@@@std@@PEAUVkShaderModule_T@@@std@@@std@@@3@@entt@@AEAA?A?<auto>@@$$QEAW4glslang_stage_t@@@Z
	??$insert_or_do_nothing@_W$$V@?$dense_map@_WUFontUV@LoFi@@U?$hash@_W@std@@U?$equal_to@_W@4@V?$allocator@U?$pair@$$CB_WUFontUV@LoFi@@@std@@@4@@entt@@AEAA?A?<auto>@@$$QEA_W@Z
	??$invoke@V<lambda_1>@?0???$remove@UTagDataChanged@Gfx@Component@LoFi@@UTagDataUpdateCompleted@234@V?$view_iterator@V?$basic_sparse_set@W4entity@entt@@V?$allocator@W4entity@entt@@@std@@@entt@@$02$0A@@internal@entt@@@?$basic_registry@W4entity@entt@@V?$allocator@W4entity@entt@@@std@@@entt@@QEAA_KV?$view_iterator@V?$basic_sparse_set@W4entity@entt@@V?$allocator@W4entity@entt@@@std@@@entt@@$02$0A@@internal@3@0@Z@AEAV?$basic_sigh_mixin@V?$basic_storage@UTagDataChanged@Gfx@Component@LoFi@@W4entity@entt@@V?$allocator@UTagDataChanged@Gfx@Component@LoFi@@@std@@X@entt@@V?$basic_registry@W4entity@entt@@V?$allocator@W4entity@entt@@@std@@@2@@3@AEAV?$basic_sigh_mixin@V?$basic_storage@UTagDataUpdateCompleted@Gfx@Component@LoFi@@W4entity@entt@@V?$allocator@UTagDataUpdateCompleted@Gfx@Component@LoFi@@@std@@X@entt@@V?$basic_registry@W4entity@entt@@V?$allocator@W4entity@entt@@@std@@@2@@3@@std@@YAI$$QEAV<lambda_1>@?0???$remove@UTagDataChanged@Gfx@Component@LoFi@@UTagDataUpdateCompleted@234@V?$view_iterator@V?$basic_sparse_set@W4entity@entt@@V?$allocator@W4entity@entt@@@std@@@entt@@$02$0A@@internal@entt@@@?$basic_registry@W4entity@entt@@V?$allocator@W4entity@entt@@@std@@@entt@@QEAA_KV?$view_iterator@V?$basic_sparse_set@W4entity@entt@@V?$allocator@W4entity@entt@@@std@@@entt@@$02$0A@@internal@3@0@Z@AEAV?$basic_sigh_mixin@V?$basic_storage@UTagDataChanged@Gfx@Component@LoFi@@W4entity@entt@@V?$allocator@UTagDataChanged@Gfx@Component@LoFi@@@std@@X@entt@@V?$basic_registry@W4entity@entt@@V?$allocator@W4entity@entt@@@std@@@2@@3@AEAV?$basic_sigh_mixin@V?$basic_storage@UTagDataUpdateCompleted@Gfx@Component@LoFi@@W4entity@entt@@V?$allocator@UTagDataUpdateCompleted@Gfx@Component@LoFi@@@std@@X@entt@@V?$basic_registry@W4entity@entt@@V?$allocator@W4entity@entt@@@std@@@2@@3@@Z
	??$invoke@V<lambda_1>@?0??_spawn@Executor@tf@@AEAAX_K@Z@@std@@YAX$$QEAV<lambda_1>@?0??_spawn@Executor@tf@@AEAAX_K@Z@@Z
	??$join@AEAY01$$CBDAEAI@spirv_cross@@YA?AV?$basic_string@DU?$char_traits@D@std@@V?$allocator@D@2@@std@@AEAY01$$CBDAEAI@Z
	??$make_observer@VTFProfObserver@tf@@$$V@Executor@tf@@QEAA?AV?$shared_ptr@VTFProfObserver@tf@@@std@@XZ
	??$remove@U?$sparse_set_iterator@V?$vector@W4entity@entt@@V?$allocator@W4entity@entt@@@std@@@std@@@internal@entt@@@?$basic_sparse_set@W4entity@entt@@V?$allocator@W4entity@entt@@@std@@@entt@@QEAA_KU?$sparse_set_iterator@V?$vector@W4entity@entt@@V?$allocator@W4entity@entt@@@std@@@std@@@internal@1@0@Z
	??$remove@UTagDataChanged@Gfx@Component@LoFi@@$$VV?$view_iterator@V?$basic_sparse_set@W4entity@entt@@V?$allocator@W4entity@entt@@@std@@@entt@@$01$0A@@internal@entt@@@?$basic_registry@W4entity@entt@@V?$allocator@W4entity@entt@@@std@@@entt@@QEAA_KV?$view_iterator@V?$basic_sparse_set@W4entity@entt@@V?$allocator@W4entity@entt@@@std@@@entt@@$01$0A@@internal@1@0@Z
	??$requisition_block@$0A@@?$ConcurrentQueue@UContextResourceRecoveryInfo@Internal@LoFi@@UConcurrentQueueDefaultTraits@moodycamel@@@moodycamel@@AEAAPEAUBlock@01@XZ
	??$sort_as@V?$view_iterator@V?$basic_sparse_set@W4entity@entt@@V?$allocator@W4entity@entt@@@std@@@entt@@$00$0A@@internal@entt@@@?$basic_sparse_set@W4entity@entt@@V?$allocator@W4entity@entt@@@std@@@entt@@QEAA?AU?$sparse_set_iterator@V?$vector@W4entity@entt@@V?$allocator@W4entity@entt@@@std@@@std@@@internal@1@V?$view_iterator@V?$basic_sparse_set@W4entity@entt@@V?$allocator@W4entity@entt@@@std@@@entt@@$00$0A@@31@0@Z
	??$sort_as@V?$view_iterator@V?$basic_sparse_set@W4entity@entt@@V?$allocator@W4entity@entt@@@std@@@entt@@$01$0A@@internal@entt@@@?$basic_sparse_set@W4entity@entt@@V?$allocator@W4entity@entt@@@std@@@entt@@QEAA?AU?$sparse_set_iterator@V?$vector@W4entity@entt@@V?$allocator@W4entity@entt@@@std@@@std@@@internal@1@V?$view_iterator@V?$basic_sparse_set@W4entity@entt@@V?$allocator@W4entity@entt@@@std@@@entt@@$01$0A@@31@0@Z
	??$throw_re@AEAY0CJ@$$CBD@tf@@YAXPEBD_KAEAY0CJ@$$CBD@Z
	??$try_dequeue@UContextResourceRecoveryInfo@Internal@LoFi@@@?$ConcurrentQueue@UContextResourceRecoveryInfo@Internal@LoFi@@UConcurrentQueueDefaultTraits@moodycamel@@@moodycamel@@QEAA_NAEAUContextResourceRecoveryInfo@Internal@LoFi@@@Z
	??$use_facet@V?$codecvt@DDU_Mbstatet@@@std@@@std@@YAAEBV?$codecvt@DDU_Mbstatet@@@0@AEBVlocale@0@@Z
	??$use_facet@V?$numpunct@D@std@@@std@@YAAEBV?$numpunct@D@0@AEBVlocale@0@@Z
	??$vformat@$0A@@__p2286@std@@YA?AV?$basic_string@DU?$char_traits@D@std@@V?$allocator@D@2@@1@V?$basic_string_view@DU?$char_traits@D@std@@@1@V?$basic_format_args@V?$basic_format_context@V?$back_insert_iterator@V?$_Fmt_buffer@D@std@@@std@@D@std@@@1@@Z
	??$vformat_to@V?$back_insert_iterator@V?$basic_string@DU?$char_traits@D@std@@V?$allocator@D@2@@std@@@std@@@__p2286@std@@YA?AV?$back_insert_iterator@V?$basic_string@DU?$char_traits@D@std@@V?$allocator@D@2@@std@@@1@V21@V?$basic_string_view@DU?$char_traits@D@std@@@1@V?$basic_format_args@V?$basic_format_context@V?$back_insert_iterator@V?$_Fmt_buffer@D@std@@@std@@D@std@@@1@@Z
	??0?$ConcurrentQueue@UContextResourceRecoveryInfo@Internal@LoFi@@UConcurrentQueueDefaultTraits@moodycamel@@@moodycamel@@QEAA@_K@Z
	??0?$_Hash@V?$_Umap_traits@V?$basic_string@DU?$char_traits@D@std@@V?$allocator@D@2@@std@@V?$unordered_map@V?$basic_string@DU?$char_traits@D@std@@V?$allocator@D@2@@std@@_KU?$hash@V?$basic_string@DU?$char_traits@D@std@@V?$allocator@D@2@@std@@@2@U?$equal_to@V?$basic_string@DU?$char_traits@D@std@@V?$allocator@D@2@@std@@@2@V?$allocator@U?$pair@$$CBV?$basic_string@DU?$char_traits@D@std@@V?$allocator@D@2@@std@@_K@std@@@2@@2@V?$_Uhash_compare@V?$basic_string@DU?$char_traits@D@std@@V?$allocator@D@2@@std@@U?$hash@V?$basic_string@DU?$char_traits@D@std@@V?$allocator@D@2@@std@@@2@U?$equal_to@V?$basic_string@DU?$char_traits@D@std@@V?$allocator@D@2@@std@@@2@@2@V?$allocator@U?$pair@$$CBV?$basic_string@DU?$char_traits@D@std@@V?$allocator@D@2@@std@@V?$unordered_map@V?$basic_string@DU?$char_traits@D@std@@V?$allocator@D@2@@std@@_KU?$hash@V?$basic_string@DU?$char_traits@D@std@@V?$allocator@D@2@@std@@@2@U?$equal_to@V?$basic_string@DU?$char_traits@D@std@@V?$allocator@D@2@@std@@@2@V?$allocator@U?$pair@$$CBV?$basic_string@DU?$char_traits@D@std@@V?$allocator@D@2@@std@@_K@std@@@2@@2@@std@@@2@$0A@@std@@@std@@IEAA@AEBV?$_Uhash_compare@V?$basic_string@DU?$char_traits@D@std@@V?$allocator@D@2@@std@@U?$hash@V?$basic_string@DU?$char_traits@D@std@@V?$allocator@D@2@@std@@@2@U?$equal_to@V?$basic_string@DU?$char_traits@D@std@@V?$allocator@D@2@@std@@@2@@1@AEBV?$allocator@U?$pair@$$CBV?$basic_string@DU?$char_traits@D@std@@V?$allocator@D@2@@std@@V?$unordered_map@V?$basic_string@DU?$char_traits@D@std@@V?$allocator@D@2@@std@@_KU?$hash@V?$basic_string@DU?$char_traits@D@std@@V?$allocator@D@2@@std@@@2@U?$equal_to@V?$basic_string@DU?$char_traits@D@std@@V?$allocator@D@2@@std@@@2@V?$allocator@U?$pair@$$CBV?$basic_string@DU?$char_traits@D@std@@V?$allocator@D@2@@std@@_K@std@@@2@@2@@std@@@1@@Z
	??0?$_Hash@V?$_Umap_traits@V?$basic_string@DU?$char_traits@D@std@@V?$allocator@D@2@@std@@W4VkFormat@@V?$_Uhash_compare@V?$basic_string@DU?$char_traits@D@std@@V?$allocator@D@2@@std@@U?$hash@V?$basic_string@DU?$char_traits@D@std@@V?$allocator@D@2@@std@@@2@U?$equal_to@V?$basic_string@DU?$char_traits@D@std@@V?$allocator@D@2@@std@@@2@@2@V?$allocator@U?$pair@$$CBV?$basic_string@DU?$char_traits@D@std@@V?$allocator@D@2@@std@@W4VkFormat@@@std@@@2@$0A@@std@@@std@@IEAA@AEBV?$_Uhash_compare@V?$basic_string@DU?$char_traits@D@std@@V?$allocator@D@2@@std@@U?$hash@V?$basic_string@DU?$char_traits@D@std@@V?$allocator@D@2@@std@@@2@U?$equal_to@V?$basic_string@DU?$char_traits@D@std@@V?$allocator@D@2@@std@@@2@@1@AEBV?$allocator@U?$pair@$$CBV?$basic_string@DU?$char_traits@D@std@@V?$allocator@D@2@@std@@W4VkFormat@@@std@@@1@@Z
	??0?$_Hash@V?$_Umap_traits@V?$basic_string@DU?$char_traits@D@std@@V?$allocator@D@2@@std@@_KV?$_Uhash_compare@V?$basic_string@DU?$char_traits@D@std@@V?$allocator@D@2@@std@@U?$hash@V?$basic_string@DU?$char_traits@D@std@@V?$allocator@D@2@@std@@@2@U?$equal_to@V?$basic_string@DU?$char_traits@D@std@@V?$allocator@D@2@@std@@@2@@2@V?$allocator@U?$pair@$$CBV?$basic_string@DU?$char_traits@D@std@@V?$allocator@D@2@@std@@_K@std@@@2@$0A@@std@@@std@@IEAA@$$QEAV01@@Z
	??0?$_Hash@V?$_Umap_traits@V?$basic_string@DU?$char_traits@D@std@@V?$allocator@D@2@@std@@_KV?$_Uhash_compare@V?$basic_string@DU?$char_traits@D@std@@V?$allocator@D@2@@std@@U?$hash@V?$basic_string@DU?$char_traits@D@std@@V?$allocator@D@2@@std@@@2@U?$equal_to@V?$basic_string@DU?$char_traits@D@std@@V?$allocator@D@2@@std@@@2@@2@V?$allocator@U?$pair@$$CBV?$basic_string@DU?$char_traits@D@std@@V?$allocator@D@2@@std@@_K@std@@@2@$0A@@std@@@std@@IEAA@AEBV?$_Uhash_compare@V?$basic_string@DU?$char_traits@D@std@@V?$allocator@D@2@@std@@U?$hash@V?$basic_string@DU?$char_traits@D@std@@V?$allocator@D@2@@std@@@2@U?$equal_to@V?$basic_string@DU?$char_traits@D@std@@V?$allocator@D@2@@std@@@2@@1@AEBV?$allocator@U?$pair@$$CBV?$basic_string@DU?$char_traits@D@std@@V?$allocator@D@2@@std@@_K@std@@@1@@Z
	??0?$_Hash@V?$_Umap_traits@Vid@thread@std@@_KV?$_Uhash_compare@Vid@thread@std@@U?$hash@Vid@thread@std@@@3@U?$equal_to@Vid@thread@std@@@3@@3@V?$allocator@U?$pair@$$CBVid@thread@std@@_K@std@@@3@$0A@@std@@@std@@IEAA@AEBV?$_Uhash_compare@Vid@thread@std@@U?$hash@Vid@thread@std@@@3@U?$equal_to@Vid@thread@std@@@3@@1@AEBV?$allocator@U?$pair@$$CBVid@thread@std@@_K@std@@@1@@Z
	??0?$_Hash@V?$_Uset_traits@V?$shared_ptr@VObserverInterface@tf@@@std@@V?$_Uhash_compare@V?$shared_ptr@VObserverInterface@tf@@@std@@U?$hash@V?$shared_ptr@VObserverInterface@tf@@@std@@@2@U?$equal_to@V?$shared_ptr@VObserverInterface@tf@@@std@@@2@@2@V?$allocator@V?$shared_ptr@VObserverInterface@tf@@@std@@@2@$0A@@std@@@std@@IEAA@AEBV?$_Uhash_compare@V?$shared_ptr@VObserverInterface@tf@@@std@@U?$hash@V?$shared_ptr@VObserverInterface@tf@@@std@@@2@U?$equal_to@V?$shared_ptr@VObserverInterface@tf@@@std@@@2@@1@AEBV?$allocator@V?$shared_ptr@VObserverInterface@tf@@@std@@@1@@Z
	??0?$basic_ifstream@DU?$char_traits@D@std@@@std@@QEAA@PEBDHH@Z
	??0?$basic_ofstream@DU?$char_traits@D@std@@@std@@QEAA@PEBDHH@Z
	??0?$basic_ostringstream@DU?$char_traits@D@std@@V?$allocator@D@2@@std@@QEAA@XZ
	??0?$basic_registry@W4entity@entt@@V?$allocator@W4entity@entt@@@std@@@entt@@QEAA@_KAEBV?$allocator@W4entity@entt@@@std@@@Z
	??0?$basic_storage@UTagDataChanged@Gfx@Component@LoFi@@W4entity@entt@@V?$allocator@UTagDataChanged@Gfx@Component@LoFi@@@std@@X@entt@@QEAA@AEBV?$allocator@UTagDataChanged@Gfx@Component@LoFi@@@std@@@Z
	??0?$basic_storage@UTagDataUpdateCompleted@Gfx@Component@LoFi@@W4entity@entt@@V?$allocator@UTagDataUpdateCompleted@Gfx@Component@LoFi@@@std@@X@entt@@QEAA@AEBV?$allocator@UTagDataUpdateCompleted@Gfx@Component@LoFi@@@std@@@Z
	??0?$basic_storage@VBuffer3F@Gfx@Component@LoFi@@W4entity@entt@@V?$allocator@VBuffer3F@Gfx@Component@LoFi@@@std@@X@entt@@QEAA@AEBV?$allocator@VBuffer3F@Gfx@Component@LoFi@@@std@@@Z
	??0?$basic_storage@VBuffer@Gfx@Component@LoFi@@W4entity@entt@@V?$allocator@VBuffer@Gfx@Component@LoFi@@@std@@X@entt@@QEAA@AEBV?$allocator@VBuffer@Gfx@Component@LoFi@@@std@@@Z
	??0?$basic_storage@VKernel@Gfx@Component@LoFi@@W4entity@entt@@V?$allocator@VKernel@Gfx@Component@LoFi@@@std@@X@entt@@QEAA@AEBV?$allocator@VKernel@Gfx@Component@LoFi@@@std@@@Z
	??0?$basic_storage@VProgram@Gfx@Component@LoFi@@W4entity@entt@@V?$allocator@VProgram@Gfx@Component@LoFi@@@std@@X@entt@@QEAA@AEBV?$allocator@VProgram@Gfx@Component@LoFi@@@std@@@Z
	??0?$basic_storage@VSwapchain@Gfx@Component@LoFi@@W4entity@entt@@V?$allocator@VSwapchain@Gfx@Component@LoFi@@@std@@X@entt@@QEAA@AEBV?$allocator@VSwapchain@Gfx@Component@LoFi@@@std@@@Z
	??0?$basic_storage@VTexture@Gfx@Component@LoFi@@W4entity@entt@@V?$allocator@VTexture@Gfx@Component@LoFi@@@std@@X@entt@@QEAA@AEBV?$allocator@VTexture@Gfx@Component@LoFi@@@std@@@Z
	??0?$basic_storage@VWindow@Gfx@Component@LoFi@@W4entity@entt@@V?$allocator@VWindow@Gfx@Component@LoFi@@@std@@X@entt@@QEAA@AEBV?$allocator@VWindow@Gfx@Component@LoFi@@@std@@@Z
	??0?$basic_storage@W4entity@entt@@W412@V?$allocator@W4entity@entt@@@std@@X@entt@@QEAA@AEBV?$allocator@W4entity@entt@@@std@@@Z
	??0?$basic_string@DU?$char_traits@D@std@@V?$allocator@D@2@@std@@QEAA@QEBD@Z
	??0?$dense_map@IV?$basic_any@$0A@$07@entt@@Uidentity@2@U?$equal_to@I@std@@V?$allocator@U?$pair@$$CBIV?$basic_any@$0A@$07@entt@@@std@@@5@@entt@@QEAA@AEBV?$allocator@U?$pair@$$CBIV?$basic_any@$0A@$07@entt@@@std@@@std@@@Z
	??0?$dense_map@IV?$shared_ptr@Ugroup_descriptor@internal@entt@@@std@@Uidentity@entt@@U?$equal_to@I@2@V?$allocator@U?$pair@$$CBIV?$shared_ptr@Ugroup_descriptor@internal@entt@@@std@@@std@@@2@@entt@@QEAA@AEBV?$allocator@U?$pair@$$CBIV?$shared_ptr@Ugroup_descriptor@internal@entt@@@std@@@std@@@std@@@Z
	??0?$dense_map@IV?$shared_ptr@V?$basic_sparse_set@W4entity@entt@@V?$allocator@W4entity@entt@@@std@@@entt@@@std@@Uidentity@entt@@U?$equal_to@I@2@V?$allocator@U?$pair@$$CBIV?$shared_ptr@V?$basic_sparse_set@W4entity@entt@@V?$allocator@W4entity@entt@@@std@@@entt@@@std@@@std@@@2@@entt@@QEAA@AEBV?$allocator@U?$pair@$$CBIV?$shared_ptr@V?$basic_sparse_set@W4entity@entt@@V?$allocator@W4entity@entt@@@std@@@entt@@@std@@@std@@@std@@@Z
	??0?$dense_map@IW4VkVertexInputRate@@U?$hash@I@std@@U?$equal_to@I@3@V?$allocator@U?$pair@$$CBIW4VkVertexInputRate@@@std@@@3@@entt@@QEAA@XZ
	??0?$dense_map@IW4entity@entt@@U?$hash@I@std@@U?$equal_to@I@4@V?$allocator@U?$pair@$$CBIW4entity@entt@@@std@@@4@@entt@@QEAA@XZ
	??0?$dense_map@UVkSamplerCreateInfo@@PEAUVkSampler_T@@USamplerCIHash@GfxContext@LoFi@@USamplerCIEqual@45@V?$allocator@U?$pair@$$CBUVkSamplerCreateInfo@@PEAUVkSampler_T@@@std@@@std@@@entt@@QEAA@XZ
	??0?$dense_map@W4glslang_stage_t@@V?$basic_string_view@DU?$char_traits@D@std@@@std@@U?$hash@W4glslang_stage_t@@@3@U?$equal_to@W4glslang_stage_t@@@3@V?$allocator@U?$pair@$$CBW4glslang_stage_t@@V?$basic_string_view@DU?$char_traits@D@std@@@std@@@std@@@3@@entt@@QEAA@XZ
	??0?$dense_map@_WUFontUV@LoFi@@U?$hash@_W@std@@U?$equal_to@_W@4@V?$allocator@U?$pair@$$CB_WUFontUV@LoFi@@@std@@@4@@entt@@QEAA@XZ
	??0?$dense_set@W4entity@entt@@U?$hash@W4entity@entt@@@std@@U?$equal_to@W4entity@entt@@@4@V?$allocator@W4entity@entt@@@4@@entt@@QEAA@XZ
	??0?$pair@$$CBV?$basic_string@DU?$char_traits@D@std@@V?$allocator@D@2@@std@@V?$unordered_map@V?$basic_string@DU?$char_traits@D@std@@V?$allocator@D@2@@std@@_KU?$hash@V?$basic_string@DU?$char_traits@D@std@@V?$allocator@D@2@@std@@@2@U?$equal_to@V?$basic_string@DU?$char_traits@D@std@@V?$allocator@D@2@@std@@@2@V?$allocator@U?$pair@$$CBV?$basic_string@DU?$char_traits@D@std@@V?$allocator@D@2@@std@@_K@std@@@2@@2@@std@@QEAA@AEBU01@@Z
	??0?$unordered_map@V?$basic_string@DU?$char_traits@D@std@@V?$allocator@D@2@@std@@V?$unordered_map@V?$basic_string@DU?$char_traits@D@std@@V?$allocator@D@2@@std@@_KU?$hash@V?$basic_string@DU?$char_traits@D@std@@V?$allocator@D@2@@std@@@2@U?$equal_to@V?$basic_string@DU?$char_traits@D@std@@V?$allocator@D@2@@std@@@2@V?$allocator@U?$pair@$$CBV?$basic_string@DU?$char_traits@D@std@@V?$allocator@D@2@@std@@_K@std@@@2@@2@U?$hash@V?$basic_string@DU?$char_traits@D@std@@V?$allocator@D@2@@std@@@2@U?$equal_to@V?$basic_string@DU?$char_traits@D@std@@V?$allocator@D@2@@std@@@2@V?$allocator@U?$pair@$$CBV?$basic_string@DU?$char_traits@D@std@@V?$allocator@D@2@@std@@V?$unordered_map@V?$basic_string@DU?$char_traits@D@std@@V?$allocator@D@2@@std@@_KU?$hash@V?$basic_string@DU?$char_traits@D@std@@V?$allocator@D@2@@std@@@2@U?$equal_to@V?$basic_string@DU?$char_traits@D@std@@V?$allocator@D@2@@std@@@2@V?$allocator@U?$pair@$$CBV?$basic_string@DU?$char_traits@D@std@@V?$allocator@D@2@@std@@_K@std@@@2@@2@@std@@@2@@std@@QEAA@V?$initializer_list@U?$pair@$$CBV?$basic_string@DU?$char_traits@D@std@@V?$allocator@D@2@@std@@V?$unordered_map@V?$basic_string@DU?$char_traits@D@std@@V?$allocator@D@2@@std@@_KU?$hash@V?$basic_string@DU?$char_traits@D@std@@V?$allocator@D@2@@std@@@2@U?$equal_to@V?$basic_string@DU?$char_traits@D@std@@V?$allocator@D@2@@std@@@2@V?$allocator@U?$pair@$$CBV?$basic_string@DU?$char_traits@D@std@@V?$allocator@D@2@@std@@_K@std@@@2@@2@@std@@@1@@Z
	??0?$unordered_map@V?$basic_string@DU?$char_traits@D@std@@V?$allocator@D@2@@std@@W4VkFormat@@U?$hash@V?$basic_string@DU?$char_traits@D@std@@V?$allocator@D@2@@std@@@2@U?$equal_to@V?$basic_string@DU?$char_traits@D@std@@V?$allocator@D@2@@std@@@2@V?$allocator@U?$pair@$$CBV?$basic_string@DU?$char_traits@D@std@@V?$allocator@D@2@@std@@W4VkFormat@@@std@@@2@@std@@QEAA@V?$initializer_list@U?$pair@$$CBV?$basic_string@DU?$char_traits@D@std@@V?$allocator@D@2@@std@@W4VkFormat@@@std@@@1@@Z
	??0?$unordered_map@V?$basic_string@DU?$char_traits@D@std@@V?$allocator@D@2@@std@@_KU?$hash@V?$basic_string@DU?$char_traits@D@std@@V?$allocator@D@2@@std@@@2@U?$equal_to@V?$basic_string@DU?$char_traits@D@std@@V?$allocator@D@2@@std@@@2@V?$allocator@U?$pair@$$CBV?$basic_string@DU?$char_traits@D@std@@V?$allocator@D@2@@std@@_K@std@@@2@@std@@QEAA@V?$initializer_list@U?$pair@$$CBV?$basic_string@DU?$char_traits@D@std@@V?$allocator@D@2@@std@@_K@std@@@1@@Z
	??0?$view_iterator@V?$basic_sparse_set@W4entity@entt@@V?$allocator@W4entity@entt@@@std@@@entt@@$00$0A@@internal@entt@@QEAA@U?$sparse_set_iterator@V?$vector@W4entity@entt@@V?$allocator@W4entity@entt@@@std@@@std@@@12@V?$array@PEBV?$basic_sparse_set@W4entity@entt@@V?$allocator@W4entity@entt@@@std@@@entt@@$00@std@@V?$array@PEBV?$basic_sparse_set@W4entity@entt@@V?$allocator@W4entity@entt@@@std@@@entt@@$0A@@5@_K@Z
	??0?$view_iterator@V?$basic_sparse_set@W4entity@entt@@V?$allocator@W4entity@entt@@@std@@@entt@@$01$0A@@internal@entt@@QEAA@U?$sparse_set_iterator@V?$vector@W4entity@entt@@V?$allocator@W4entity@entt@@@std@@@std@@@12@V?$array@PEBV?$basic_sparse_set@W4entity@entt@@V?$allocator@W4entity@entt@@@std@@@entt@@$01@std@@V?$array@PEBV?$basic_sparse_set@W4entity@entt@@V?$allocator@W4entity@entt@@@std@@@entt@@$0A@@5@_K@Z
	??0?$view_iterator@V?$basic_sparse_set@W4entity@entt@@V?$allocator@W4entity@entt@@@std@@@entt@@$02$0A@@internal@entt@@QEAA@U?$sparse_set_iterator@V?$vector@W4entity@entt@@V?$allocator@W4entity@entt@@@std@@@std@@@12@V?$array@PEBV?$basic_sparse_set@W4entity@entt@@V?$allocator@W4entity@entt@@@std@@@entt@@$02@std@@V?$array@PEBV?$basic_sparse_set@W4entity@entt@@V?$allocator@W4entity@entt@@@std@@@entt@@$0A@@5@_K@Z
	??0Buffer3F@Gfx@Component@LoFi@@QEAA@W4entity@entt@@_K_N@Z
	??0Buffer@Gfx@Component@LoFi@@QEAA@AEBUVkBufferCreateInfo@@AEBUVmaAllocationCreateInfo@@@Z
	??0Buffer@Gfx@Component@LoFi@@QEAA@W4entity@entt@@AEBUVkBufferCreateInfo@@AEBUVmaAllocationCreateInfo@@@Z
	??0CompilerError@spirv_cross@@QEAA@AEBV01@@Z
	??0CompilerError@spirv_cross@@QEAA@PEBD@Z
	??0Executor@tf@@QEAA@_K@Z
	??0FrameGraph@LoFi@@QEAA@PEAUVkCommandBuffer_T@@@Z
	??0GfxContext@LoFi@@QEAA@XZ
	??0Kernel@Gfx@Component@LoFi@@QEAA@W4entity@entt@@0@Z
	??0PfxContext@LoFi@@QEAA@XZ
	??0PhysicalDevice@@QEAA@PEAUVkPhysicalDevice_T@@@Z
	??0Program@Gfx@Component@LoFi@@QEAA@W4entity@entt@@V?$basic_string_view@DU?$char_traits@D@std@@@std@@1AEBV?$vector@V?$basic_string_view@DU?$char_traits@D@std@@@std@@V?$allocator@V?$basic_string_view@DU?$char_traits@D@std@@@std@@@2@@7@@Z
	??0ProgramCompilerGroup@Gfx@Component@LoFi@@QEAA@XZ
	??0PushConstantBuffer@Gfx@Component@LoFi@@QEAA@W4entity@entt@@0@Z
	??0Swapchain@Gfx@Component@LoFi@@QEAA@W4entity@entt@@@Z
	??0TFProfManager@tf@@AEAA@XZ
	??0Texture@Gfx@Component@LoFi@@QEAA@AEBUVkImageCreateInfo@@PEAUVkImage_T@@_N@Z
	??0Texture@Gfx@Component@LoFi@@QEAA@W4entity@entt@@AEBUVkImageCreateInfo@@AEBUVmaAllocationCreateInfo@@@Z
	??0VmaAllocation_T@@QEAA@_N@Z
	??0VmaAllocator_T@@QEAA@PEBUVmaAllocatorCreateInfo@@@Z
	??0VmaBlockBufferImageGranularity@@QEAA@_K@Z
	??0VmaBlockMetadata@@QEAA@PEBUVkAllocationCallbacks@@_K_N@Z
	??0VmaBlockMetadata_Linear@@QEAA@PEBUVkAllocationCallbacks@@_K_N@Z
	??0VmaBlockMetadata_TLSF@@QEAA@PEBUVkAllocationCallbacks@@_K_N@Z
	??0VmaBlockVector@@QEAA@PEAUVmaAllocator_T@@PEAUVmaPool_T@@I_K222_NIM2PEAX@Z
	??0VmaBufferImageUsage@@QEAA@AEBUVkBufferCreateInfo@@_N@Z
	??0VmaBufferImageUsage@@QEAA@AEBUVkImageCreateInfo@@@Z
	??0VmaCurrentBudgetData@@QEAA@XZ
	??0VmaDefragmentationContext_T@@QEAA@PEAUVmaAllocator_T@@AEBUVmaDefragmentationInfo@@@Z
	??0VmaDeviceMemoryBlock@@QEAA@PEAUVmaAllocator_T@@@Z
	??0VmaJsonWriter@@QEAA@PEBUVkAllocationCallbacks@@AEAVVmaStringBuilder@@@Z
	??0VmaPool_T@@QEAA@PEAUVmaAllocator_T@@AEBUVmaPoolCreateInfo@@_K@Z
	??0VmaVirtualBlock_T@@QEAA@AEBUVmaVirtualBlockCreateInfo@@@Z
	??0Window@Gfx@Component@LoFi@@QEAA@W4entity@entt@@PEBDHH@Z
	??0Worker@tf@@QEAA@XZ
	??0_ExceptionHolder@details@Concurrency@@QEAA@AEBVexception_ptr@std@@AEBV_TaskCreationCallstack@12@@Z
	??0_System_error@std@@IEAA@Verror_code@1@@Z
	??0_System_error@std@@QEAA@AEBV01@@Z
	??0_Task_impl_base@details@Concurrency@@QEAA@PEAV_CancellationTokenState@12@Uscheduler_ptr@2@@Z
	??0bad_alloc@std@@QEAA@AEBV01@@Z
	??0bad_array_new_length@std@@QEAA@AEBV01@@Z
	??0bad_cast@std@@QEAA@AEBV01@@Z
	??0bad_optional_access@std@@QEAA@AEBV01@@Z
	??0exception@std@@QEAA@AEBV01@@Z
	??0exception_ptr@std@@QEAA@AEBV01@@Z
	??0format_error@std@@QEAA@AEBV01@@Z
	??0future_error@std@@QEAA@AEBV01@@Z
	??0future_error@std@@QEAA@W4future_errc@1@@Z
	??0invalid_operation@Concurrency@@QEAA@AEBV01@@Z
	??0invalid_operation@Concurrency@@QEAA@PEBD@Z
	??0logic_error@std@@QEAA@AEBV01@@Z
	??0runtime_error@std@@QEAA@AEBV01@@Z
	??0runtime_error@std@@QEAA@AEBV?$basic_string@DU?$char_traits@D@std@@V?$allocator@D@2@@1@@Z
	??0runtime_error@std@@QEAA@PEBD@Z
	??0sentry@?$basic_ostream@DU?$char_traits@D@std@@@std@@QEAA@AEAV12@@Z
	??0system_error@std@@QEAA@AEBV01@@Z
	??0system_error@std@@QEAA@Verror_code@1@@Z
	??1<lambda_1>@?0???R0?0??_ScheduleContinuationTask@_Task_impl_base@details@Concurrency@@QEAAXPEAU_ContinuationTaskHandleBase@34@@Z@QEBA?A?<auto>@@XZ@QEAA@XZ
	??1?$ConcurrentQueue@UContextResourceRecoveryInfo@Internal@LoFi@@UConcurrentQueueDefaultTraits@moodycamel@@@moodycamel@@QEAA@XZ
	??1?$ImmediateAtlasGenerator@M$03$1?mtsdfGenerator@msdf_atlas@@YAXAEBU?$BitmapRef@M$03@msdfgen@@AEBVGlyphGeometry@2@AEBUGeneratorAttributes@2@@ZV?$BitmapAtlasStorage@E$03@2@@msdf_atlas@@QEAA@XZ
	??1?$SmallVector@UBuiltInResource@spirv_cross@@$07@spirv_cross@@QEAA@XZ
	??1?$SmallVector@UResource@spirv_cross@@$07@spirv_cross@@QEAA@XZ
	??1?$StringStream@$0BAAA@$0BAAA@@spirv_cross@@QEAA@XZ
	??1?$TaskQueue@PEAVNode@tf@@$02@tf@@QEAA@XZ
	??1?$VmaPoolAllocator@UVmaAllocation_T@@@@QEAA@XZ
	??1?$VmaPoolAllocator@VBlock@VmaBlockMetadata_TLSF@@@@QEAA@XZ
	??1?$VmaSmallVector@UVkMappedMemoryRange@@U?$VmaStlAllocator@UVkMappedMemoryRange@@@@$0BA@@@QEAA@XZ
	??1?$VmaVector@PEAVBlock@VmaBlockMetadata_TLSF@@U?$VmaStlAllocator@PEAVBlock@VmaBlockMetadata_TLSF@@@@@@QEAA@XZ
	??1?$VmaVector@UFragmentedBlock@VmaDefragmentationContext_T@@U?$VmaStlAllocator@UFragmentedBlock@VmaDefragmentationContext_T@@@@@@QEAA@XZ
	??1?$VmaVector@UVmaDefragmentationMove@@U?$VmaStlAllocator@UVmaDefragmentationMove@@@@@@QEAA@XZ
	??1?$_Associated_state@H@std@@UEAA@XZ
	??1?$_Fmt_iterator_buffer@V?$back_insert_iterator@V?$basic_string@DU?$char_traits@D@std@@V?$allocator@D@2@@std@@@std@@DU_Fmt_buffer_traits@2@@std@@QEAA@XZ
	??1?$_Hash@V?$_Umap_traits@V?$basic_string@DU?$char_traits@D@std@@V?$allocator@D@2@@std@@V?$unordered_map@V?$basic_string@DU?$char_traits@D@std@@V?$allocator@D@2@@std@@_KU?$hash@V?$basic_string@DU?$char_traits@D@std@@V?$allocator@D@2@@std@@@2@U?$equal_to@V?$basic_string@DU?$char_traits@D@std@@V?$allocator@D@2@@std@@@2@V?$allocator@U?$pair@$$CBV?$basic_string@DU?$char_traits@D@std@@V?$allocator@D@2@@std@@_K@std@@@2@@2@V?$_Uhash_compare@V?$basic_string@DU?$char_traits@D@std@@V?$allocator@D@2@@std@@U?$hash@V?$basic_string@DU?$char_traits@D@std@@V?$allocator@D@2@@std@@@2@U?$equal_to@V?$basic_string@DU?$char_traits@D@std@@V?$allocator@D@2@@std@@@2@@2@V?$allocator@U?$pair@$$CBV?$basic_string@DU?$char_traits@D@std@@V?$allocator@D@2@@std@@V?$unordered_map@V?$basic_string@DU?$char_traits@D@std@@V?$allocator@D@2@@std@@_KU?$hash@V?$basic_string@DU?$char_traits@D@std@@V?$allocator@D@2@@std@@@2@U?$equal_to@V?$basic_string@DU?$char_traits@D@std@@V?$allocator@D@2@@std@@@2@V?$allocator@U?$pair@$$CBV?$basic_string@DU?$char_traits@D@std@@V?$allocator@D@2@@std@@_K@std@@@2@@2@@std@@@2@$0A@@std@@@std@@QEAA@XZ
	??1?$_Hash@V?$_Umap_traits@V?$basic_string@DU?$char_traits@D@std@@V?$allocator@D@2@@std@@W4VkFormat@@V?$_Uhash_compare@V?$basic_string@DU?$char_traits@D@std@@V?$allocator@D@2@@std@@U?$hash@V?$basic_string@DU?$char_traits@D@std@@V?$allocator@D@2@@std@@@2@U?$equal_to@V?$basic_string@DU?$char_traits@D@std@@V?$allocator@D@2@@std@@@2@@2@V?$allocator@U?$pair@$$CBV?$basic_string@DU?$char_traits@D@std@@V?$allocator@D@2@@std@@W4VkFormat@@@std@@@2@$0A@@std@@@std@@QEAA@XZ
	??1?$_Hash@V?$_Umap_traits@V?$basic_string@DU?$char_traits@D@std@@V?$allocator@D@2@@std@@_KV?$_Uhash_compare@V?$basic_string@DU?$char_traits@D@std@@V?$allocator@D@2@@std@@U?$hash@V?$basic_string@DU?$char_traits@D@std@@V?$allocator@D@2@@std@@@2@U?$equal_to@V?$basic_string@DU?$char_traits@D@std@@V?$allocator@D@2@@std@@@2@@2@V?$allocator@U?$pair@$$CBV?$basic_string@DU?$char_traits@D@std@@V?$allocator@D@2@@std@@_K@std@@@2@$0A@@std@@@std@@QEAA@XZ
	??1?$_Hash@V?$_Umap_traits@Vid@thread@std@@_KV?$_Uhash_compare@Vid@thread@std@@U?$hash@Vid@thread@std@@@3@U?$equal_to@Vid@thread@std@@@3@@3@V?$allocator@U?$pair@$$CBVid@thread@std@@_K@std@@@3@$0A@@std@@@std@@QEAA@XZ
	??1?$_Hash@V?$_Uset_traits@V?$shared_ptr@VObserverInterface@tf@@@std@@V?$_Uhash_compare@V?$shared_ptr@VObserverInterface@tf@@@std@@U?$hash@V?$shared_ptr@VObserverInterface@tf@@@std@@@2@U?$equal_to@V?$shared_ptr@VObserverInterface@tf@@@std@@@2@@2@V?$allocator@V?$shared_ptr@VObserverInterface@tf@@@std@@@2@$0A@@std@@@std@@QEAA@XZ
	??1?$_Hash_vec@V?$allocator@V?$_List_unchecked_const_iterator@V?$_List_val@U?$_List_simple_types@V?$shared_ptr@VObserverInterface@tf@@@std@@@std@@@std@@U_Iterator_base0@2@@std@@@std@@@std@@QEAA@XZ
	??1?$_Hash_vec@V?$allocator@V?$_List_unchecked_iterator@V?$_List_val@U?$_List_simple_types@U?$pair@$$CBV?$basic_string@DU?$char_traits@D@std@@V?$allocator@D@2@@std@@V?$unordered_map@V?$basic_string@DU?$char_traits@D@std@@V?$allocator@D@2@@std@@_KU?$hash@V?$basic_string@DU?$char_traits@D@std@@V?$allocator@D@2@@std@@@2@U?$equal_to@V?$basic_string@DU?$char_traits@D@std@@V?$allocator@D@2@@std@@@2@V?$allocator@U?$pair@$$CBV?$basic_string@DU?$char_traits@D@std@@V?$allocator@D@2@@std@@_K@std@@@2@@2@@std@@@std@@@std@@@std@@@std@@@std@@QEAA@XZ
	??1?$_Hash_vec@V?$allocator@V?$_List_unchecked_iterator@V?$_List_val@U?$_List_simple_types@U?$pair@$$CBV?$basic_string@DU?$char_traits@D@std@@V?$allocator@D@2@@std@@W4VkFormat@@@std@@@std@@@std@@@std@@@std@@@std@@QEAA@XZ
	??1?$_Hash_vec@V?$allocator@V?$_List_unchecked_iterator@V?$_List_val@U?$_List_simple_types@U?$pair@$$CBV?$basic_string@DU?$char_traits@D@std@@V?$allocator@D@2@@std@@_K@std@@@std@@@std@@@std@@@std@@@std@@QEAA@XZ
	??1?$_Hash_vec@V?$allocator@V?$_List_unchecked_iterator@V?$_List_val@U?$_List_simple_types@U?$pair@$$CBVid@thread@std@@_K@std@@@std@@@std@@@std@@@std@@@std@@QEAA@XZ
	??1?$_List_node_emplace_op2@V?$allocator@U?$_List_node@U?$pair@$$CBV?$basic_string@DU?$char_traits@D@std@@V?$allocator@D@2@@std@@V?$unordered_map@V?$basic_string@DU?$char_traits@D@std@@V?$allocator@D@2@@std@@_KU?$hash@V?$basic_string@DU?$char_traits@D@std@@V?$allocator@D@2@@std@@@2@U?$equal_to@V?$basic_string@DU?$char_traits@D@std@@V?$allocator@D@2@@std@@@2@V?$allocator@U?$pair@$$CBV?$basic_string@DU?$char_traits@D@std@@V?$allocator@D@2@@std@@_K@std@@@2@@2@@std@@PEAX@std@@@std@@@std@@QEAA@XZ
	??1?$_List_node_emplace_op2@V?$allocator@U?$_List_node@U?$pair@$$CBV?$basic_string@DU?$char_traits@D@std@@V?$allocator@D@2@@std@@W4VkFormat@@@std@@PEAX@std@@@std@@@std@@QEAA@XZ
	??1?$_List_node_emplace_op2@V?$allocator@U?$_List_node@U?$pair@$$CBV?$basic_string@DU?$char_traits@D@std@@V?$allocator@D@2@@std@@_K@std@@PEAX@std@@@std@@@std@@QEAA@XZ
	??1?$_List_node_emplace_op2@V?$allocator@U?$_List_node@V?$shared_ptr@VObserverInterface@tf@@@std@@PEAX@std@@@std@@@std@@QEAA@XZ
	??1?$_Packaged_state@$$A6AXXZ@std@@UEAA@XZ
	??1?$_State_manager@H@std@@QEAA@XZ
	??1?$_Task_async_state@X@std@@UEAA@XZ
	??1?$_Tidy_guard@V?$deque@V?$time_point@Usteady_clock@chrono@std@@V?$duration@_JU?$ratio@$00$0DLJKMKAA@@std@@@23@@chrono@std@@V?$allocator@V?$time_point@Usteady_clock@chrono@std@@V?$duration@_JU?$ratio@$00$0DLJKMKAA@@std@@@23@@chrono@std@@@3@@std@@@std@@QEAA@XZ
	??1?$_Tidy_guard@V?$numpunct@D@std@@@std@@QEAA@XZ
	??1?$_Tidy_guard@V?$vector@VWorker@tf@@V?$allocator@VWorker@tf@@@std@@@std@@@std@@QEAA@XZ
	??1?$_Tree@V?$_Tmap_traits@V?$basic_string@DU?$char_traits@D@std@@V?$allocator@D@2@@std@@W4glslang_stage_t@@U?$less@V?$basic_string@DU?$char_traits@D@std@@V?$allocator@D@2@@std@@@2@V?$allocator@U?$pair@$$CBV?$basic_string@DU?$char_traits@D@std@@V?$allocator@D@2@@std@@W4glslang_stage_t@@@std@@@2@$0A@@std@@@std@@QEAA@XZ
	??1?$_Uninitialized_backout_al@V?$allocator@U?$dense_map_node@V?$basic_string@DU?$char_traits@D@std@@V?$allocator@D@2@@std@@UPushConstantMemberInfo@Gfx@Component@LoFi@@@internal@entt@@@std@@@std@@QEAA@XZ
	??1?$basic_filebuf@DU?$char_traits@D@std@@@std@@UEAA@XZ
	??1?$basic_registry@W4entity@entt@@V?$allocator@W4entity@entt@@@std@@@entt@@QEAA@XZ
	??1?$basic_sigh_mixin@V?$basic_storage@UTagDataChanged@Gfx@Component@LoFi@@W4entity@entt@@V?$allocator@UTagDataChanged@Gfx@Component@LoFi@@@std@@X@entt@@V?$basic_registry@W4entity@entt@@V?$allocator@W4entity@entt@@@std@@@2@@entt@@UEAA@XZ
	??1?$basic_sigh_mixin@V?$basic_storage@UTagDataUpdateCompleted@Gfx@Component@LoFi@@W4entity@entt@@V?$allocator@UTagDataUpdateCompleted@Gfx@Component@LoFi@@@std@@X@entt@@V?$basic_registry@W4entity@entt@@V?$allocator@W4entity@entt@@@std@@@2@@entt@@UEAA@XZ
	??1?$basic_sigh_mixin@V?$basic_storage@VBuffer3F@Gfx@Component@LoFi@@W4entity@entt@@V?$allocator@VBuffer3F@Gfx@Component@LoFi@@@std@@X@entt@@V?$basic_registry@W4entity@entt@@V?$allocator@W4entity@entt@@@std@@@2@@entt@@UEAA@XZ
	??1?$basic_sigh_mixin@V?$basic_storage@VBuffer@Gfx@Component@LoFi@@W4entity@entt@@V?$allocator@VBuffer@Gfx@Component@LoFi@@@std@@X@entt@@V?$basic_registry@W4entity@entt@@V?$allocator@W4entity@entt@@@std@@@2@@entt@@UEAA@XZ
	??1?$basic_sigh_mixin@V?$basic_storage@VKernel@Gfx@Component@LoFi@@W4entity@entt@@V?$allocator@VKernel@Gfx@Component@LoFi@@@std@@X@entt@@V?$basic_registry@W4entity@entt@@V?$allocator@W4entity@entt@@@std@@@2@@entt@@UEAA@XZ
	??1?$basic_sigh_mixin@V?$basic_storage@VProgram@Gfx@Component@LoFi@@W4entity@entt@@V?$allocator@VProgram@Gfx@Component@LoFi@@@std@@X@entt@@V?$basic_registry@W4entity@entt@@V?$allocator@W4entity@entt@@@std@@@2@@entt@@UEAA@XZ
	??1?$basic_sigh_mixin@V?$basic_storage@VSwapchain@Gfx@Component@LoFi@@W4entity@entt@@V?$allocator@VSwapchain@Gfx@Component@LoFi@@@std@@X@entt@@V?$basic_registry@W4entity@entt@@V?$allocator@W4entity@entt@@@std@@@2@@entt@@UEAA@XZ
	??1?$basic_sigh_mixin@V?$basic_storage@VTexture@Gfx@Component@LoFi@@W4entity@entt@@V?$allocator@VTexture@Gfx@Component@LoFi@@@std@@X@entt@@V?$basic_registry@W4entity@entt@@V?$allocator@W4entity@entt@@@std@@@2@@entt@@UEAA@XZ
	??1?$basic_sigh_mixin@V?$basic_storage@VWindow@Gfx@Component@LoFi@@W4entity@entt@@V?$allocator@VWindow@Gfx@Component@LoFi@@@std@@X@entt@@V?$basic_registry@W4entity@entt@@V?$allocator@W4entity@entt@@@std@@@2@@entt@@UEAA@XZ
	??1?$basic_sigh_mixin@V?$basic_storage@W4entity@entt@@W412@V?$allocator@W4entity@entt@@@std@@X@entt@@V?$basic_registry@W4entity@entt@@V?$allocator@W4entity@entt@@@std@@@2@@entt@@UEAA@XZ
	??1?$basic_sparse_set@W4entity@entt@@V?$allocator@W4entity@entt@@@std@@@entt@@UEAA@XZ
	??1?$basic_string@DU?$char_traits@D@std@@V?$allocator@D@2@@std@@QEAA@XZ
	??1?$dense_map@IV?$basic_any@$0A@$07@entt@@Uidentity@2@U?$equal_to@I@std@@V?$allocator@U?$pair@$$CBIV?$basic_any@$0A@$07@entt@@@std@@@5@@entt@@QEAA@XZ
	??1?$dense_map@IV?$shared_ptr@Ugroup_descriptor@internal@entt@@@std@@Uidentity@entt@@U?$equal_to@I@2@V?$allocator@U?$pair@$$CBIV?$shared_ptr@Ugroup_descriptor@internal@entt@@@std@@@std@@@2@@entt@@QEAA@XZ
	??1?$dense_map@IV?$shared_ptr@V?$basic_sparse_set@W4entity@entt@@V?$allocator@W4entity@entt@@@std@@@entt@@@std@@Uidentity@entt@@U?$equal_to@I@2@V?$allocator@U?$pair@$$CBIV?$shared_ptr@V?$basic_sparse_set@W4entity@entt@@V?$allocator@W4entity@entt@@@std@@@entt@@@std@@@std@@@2@@entt@@QEAA@XZ
	??1?$dense_map@IW4VkVertexInputRate@@U?$hash@I@std@@U?$equal_to@I@3@V?$allocator@U?$pair@$$CBIW4VkVertexInputRate@@@std@@@3@@entt@@QEAA@XZ
	??1?$dense_map@IW4entity@entt@@U?$hash@I@std@@U?$equal_to@I@4@V?$allocator@U?$pair@$$CBIW4entity@entt@@@std@@@4@@entt@@QEAA@XZ
	??1?$dense_map@UVkSamplerCreateInfo@@PEAUVkSampler_T@@USamplerCIHash@GfxContext@LoFi@@USamplerCIEqual@45@V?$allocator@U?$pair@$$CBUVkSamplerCreateInfo@@PEAUVkSampler_T@@@std@@@std@@@entt@@QEAA@XZ
	??1?$dense_map@V?$basic_string@DU?$char_traits@D@std@@V?$allocator@D@2@@std@@UPushConstantMemberInfo@Gfx@Component@LoFi@@U?$hash@V?$basic_string@DU?$char_traits@D@std@@V?$allocator@D@2@@std@@@2@U?$equal_to@V?$basic_string@DU?$char_traits@D@std@@V?$allocator@D@2@@std@@@2@V?$allocator@U?$pair@$$CBV?$basic_string@DU?$char_traits@D@std@@V?$allocator@D@2@@std@@UPushConstantMemberInfo@Gfx@Component@LoFi@@@std@@@2@@entt@@QEAA@XZ
	??1?$dense_map@W4glslang_stage_t@@U?$pair@V?$vector@IV?$allocator@I@std@@@std@@PEAUVkShaderModule_T@@@std@@U?$hash@W4glslang_stage_t@@@3@U?$equal_to@W4glslang_stage_t@@@3@V?$allocator@U?$pair@$$CBW4glslang_stage_t@@U?$pair@V?$vector@IV?$allocator@I@std@@@std@@PEAUVkShaderModule_T@@@std@@@std@@@3@@entt@@QEAA@XZ
	??1?$dense_map@W4glslang_stage_t@@V?$basic_string_view@DU?$char_traits@D@std@@@std@@U?$hash@W4glslang_stage_t@@@3@U?$equal_to@W4glslang_stage_t@@@3@V?$allocator@U?$pair@$$CBW4glslang_stage_t@@V?$basic_string_view@DU?$char_traits@D@std@@@std@@@std@@@3@@entt@@QEAA@XZ
	??1?$dense_map@_WUFontUV@LoFi@@U?$hash@_W@std@@U?$equal_to@_W@4@V?$allocator@U?$pair@$$CB_WUFontUV@LoFi@@@std@@@4@@entt@@QEAA@XZ
	??1?$dense_set@W4entity@entt@@U?$hash@W4entity@entt@@@std@@U?$equal_to@W4entity@entt@@@4@V?$allocator@W4entity@entt@@@4@@entt@@QEAA@XZ
	??1?$deque@V?$time_point@Usteady_clock@chrono@std@@V?$duration@_JU?$ratio@$00$0DLJKMKAA@@std@@@23@@chrono@std@@V?$allocator@V?$time_point@Usteady_clock@chrono@std@@V?$duration@_JU?$ratio@$00$0DLJKMKAA@@std@@@23@@chrono@std@@@3@@std@@QEAA@XZ
	??1?$list@U?$pair@$$CBV?$basic_string@DU?$char_traits@D@std@@V?$allocator@D@2@@std@@V?$unordered_map@V?$basic_string@DU?$char_traits@D@std@@V?$allocator@D@2@@std@@_KU?$hash@V?$basic_string@DU?$char_traits@D@std@@V?$allocator@D@2@@std@@@2@U?$equal_to@V?$basic_string@DU?$char_traits@D@std@@V?$allocator@D@2@@std@@@2@V?$allocator@U?$pair@$$CBV?$basic_string@DU?$char_traits@D@std@@V?$allocator@D@2@@std@@_K@std@@@2@@2@@std@@V?$allocator@U?$pair@$$CBV?$basic_string@DU?$char_traits@D@std@@V?$allocator@D@2@@std@@V?$unordered_map@V?$basic_string@DU?$char_traits@D@std@@V?$allocator@D@2@@std@@_KU?$hash@V?$basic_string@DU?$char_traits@D@std@@V?$allocator@D@2@@std@@@2@U?$equal_to@V?$basic_string@DU?$char_traits@D@std@@V?$allocator@D@2@@std@@@2@V?$allocator@U?$pair@$$CBV?$basic_string@DU?$char_traits@D@std@@V?$allocator@D@2@@std@@_K@std@@@2@@2@@std@@@2@@std@@QEAA@XZ
	??1?$list@U?$pair@$$CBVid@thread@std@@_K@std@@V?$allocator@U?$pair@$$CBVid@thread@std@@_K@std@@@2@@std@@QEAA@XZ
	??1?$list@V?$shared_ptr@VObserverInterface@tf@@@std@@V?$allocator@V?$shared_ptr@VObserverInterface@tf@@@std@@@2@@std@@QEAA@XZ
	??1?$list@VTaskflow@tf@@V?$allocator@VTaskflow@tf@@@std@@@std@@QEAA@XZ
	??1?$pair@$$CBV?$basic_string@DU?$char_traits@D@std@@V?$allocator@D@2@@std@@V?$unordered_map@V?$basic_string@DU?$char_traits@D@std@@V?$allocator@D@2@@std@@_KU?$hash@V?$basic_string@DU?$char_traits@D@std@@V?$allocator@D@2@@std@@@2@U?$equal_to@V?$basic_string@DU?$char_traits@D@std@@V?$allocator@D@2@@std@@@2@V?$allocator@U?$pair@$$CBV?$basic_string@DU?$char_traits@D@std@@V?$allocator@D@2@@std@@_K@std@@@2@@2@@std@@QEAA@XZ
	??1?$pair@$$CBV?$basic_string@DU?$char_traits@D@std@@V?$allocator@D@2@@std@@W4VkFormat@@@std@@QEAA@XZ
	??1?$pair@$$CBV?$basic_string@DU?$char_traits@D@std@@V?$allocator@D@2@@std@@_K@std@@QEAA@XZ
	??1?$pair@V?$basic_string@DU?$char_traits@D@std@@V?$allocator@D@2@@std@@V?$vector@V?$basic_string@DU?$char_traits@D@std@@V?$allocator@D@2@@std@@V?$allocator@V?$basic_string@DU?$char_traits@D@std@@V?$allocator@D@2@@std@@@2@@2@@std@@QEAA@XZ
	??1?$pair@V?$vector@IV?$allocator@I@std@@@std@@PEAUVkShaderModule_T@@@std@@QEAA@XZ
	??1?$shared_ptr@U_ExceptionHolder@details@Concurrency@@@std@@QEAA@XZ
	??1?$shared_ptr@U_Task_impl_base@details@Concurrency@@@std@@QEAA@XZ
	??1?$shared_ptr@Uscheduler_interface@Concurrency@@@std@@QEAA@XZ
	??1?$shared_ptr@VObserverInterface@tf@@@std@@QEAA@XZ
	??1?$shared_ptr@VTFProfObserver@tf@@@std@@QEAA@XZ
	??1?$shared_ptr@VTopology@tf@@@std@@QEAA@XZ
	??1?$task@E@Concurrency@@QEAA@XZ
	??1?$task@X@Concurrency@@QEAA@XZ
	??1?$unique_ptr@VBuffer@Gfx@Component@LoFi@@U?$default_delete@VBuffer@Gfx@Component@LoFi@@@std@@@std@@QEAA@XZ
	??1?$unique_ptr@VGfxContext@LoFi@@U?$default_delete@VGfxContext@LoFi@@@std@@@std@@QEAA@XZ
	??1?$unique_ptr@VPfxContext@LoFi@@U?$default_delete@VPfxContext@LoFi@@@std@@@std@@QEAA@XZ
	??1?$unique_ptr@VTexture@Gfx@Component@LoFi@@U?$default_delete@VTexture@Gfx@Component@LoFi@@@std@@@std@@QEAA@XZ
	??1?$unique_ptr@V_PPLTaskChore@_DefaultPPLTaskScheduler@details@Concurrency@@U?$default_delete@V_PPLTaskChore@_DefaultPPLTaskScheduler@details@Concurrency@@@std@@@std@@QEAA@XZ
	??1?$vector@EV?$allocator@E@std@@@std@@QEAA@XZ
	??1?$vector@IV?$allocator@I@std@@@std@@QEAA@XZ
	??1?$vector@MV?$allocator@M@std@@@std@@QEAA@XZ
	??1?$vector@PEAUArray@?$TaskQueue@PEAVNode@tf@@$02@tf@@V?$allocator@PEAUArray@?$TaskQueue@PEAVNode@tf@@$02@tf@@@std@@@std@@QEAA@XZ
	??1?$vector@PEAUVkBufferView_T@@V?$allocator@PEAUVkBufferView_T@@@std@@@std@@QEAA@XZ
	??1?$vector@PEAUVkCommandBuffer_T@@V?$allocator@PEAUVkCommandBuffer_T@@@std@@@std@@QEAA@XZ
	??1?$vector@PEAUVkImageView_T@@V?$allocator@PEAUVkImageView_T@@@std@@@std@@QEAA@XZ
	??1?$vector@PEAUVkImage_T@@V?$allocator@PEAUVkImage_T@@@std@@@std@@QEAA@XZ
	??1?$vector@PEAUVkPhysicalDevice_T@@V?$allocator@PEAUVkPhysicalDevice_T@@@std@@@std@@QEAA@XZ
	??1?$vector@PEAUVkSemaphore_T@@V?$allocator@PEAUVkSemaphore_T@@@std@@@std@@QEAA@XZ
	??1?$vector@PEAUVkSwapchainKHR_T@@V?$allocator@PEAUVkSwapchainKHR_T@@@std@@@std@@QEAA@XZ
	??1?$vector@PEBDV?$allocator@PEBD@std@@@std@@QEAA@XZ
	??1?$vector@U?$pair@II@std@@V?$allocator@U?$pair@II@std@@@2@@std@@QEAA@XZ
	??1?$vector@U?$pair@V?$basic_string_view@DU?$char_traits@D@std@@@std@@W4glslang_stage_t@@@std@@V?$allocator@U?$pair@V?$basic_string_view@DU?$char_traits@D@std@@@std@@W4glslang_stage_t@@@std@@@2@@std@@QEAA@XZ
	??1?$vector@U?$vec@$01G$0A@@glm@@V?$allocator@U?$vec@$01G$0A@@glm@@@std@@@std@@QEAA@XZ
	??1?$vector@U?$vec@$03G$0A@@glm@@V?$allocator@U?$vec@$03G$0A@@glm@@@std@@@std@@QEAA@XZ
	??1?$vector@UGenDrawVertexData@LoFi@@V?$allocator@UGenDrawVertexData@LoFi@@@std@@@std@@QEAA@XZ
	??1?$vector@UGenInstanceData@LoFi@@V?$allocator@UGenInstanceData@LoFi@@@std@@@std@@QEAA@XZ
	??1?$vector@UGeneratorAttributes@msdf_atlas@@V?$allocator@UGeneratorAttributes@msdf_atlas@@@std@@@std@@QEAA@XZ
	??1?$vector@UGradientData@LoFi@@V?$allocator@UGradientData@LoFi@@@std@@@std@@QEAA@XZ
	??1?$vector@UShadowParameter@LoFi@@V?$allocator@UShadowParameter@LoFi@@@std@@@std@@QEAA@XZ
	??1?$vector@UStrockTypeParameter@LoFi@@V?$allocator@UStrockTypeParameter@LoFi@@@std@@@std@@QEAA@XZ
	??1?$vector@UVkBufferViewCreateInfo@@V?$allocator@UVkBufferViewCreateInfo@@@std@@@std@@QEAA@XZ
	??1?$vector@UVkDrawIndexedIndirectCommand@@V?$allocator@UVkDrawIndexedIndirectCommand@@@std@@@std@@QEAA@XZ
	??1?$vector@UVkExtensionProperties@@V?$allocator@UVkExtensionProperties@@@std@@@std@@QEAA@XZ
	??1?$vector@UVkImageViewCreateInfo@@V?$allocator@UVkImageViewCreateInfo@@@std@@@std@@QEAA@XZ
	??1?$vector@UVkPipelineColorBlendAttachmentState@@V?$allocator@UVkPipelineColorBlendAttachmentState@@@std@@@std@@QEAA@XZ
	??1?$vector@UVkPipelineShaderStageCreateInfo@@V?$allocator@UVkPipelineShaderStageCreateInfo@@@std@@@std@@QEAA@XZ
	??1?$vector@UVkQueueFamilyProperties@@V?$allocator@UVkQueueFamilyProperties@@@std@@@std@@QEAA@XZ
	??1?$vector@UVkRenderingAttachmentInfo@@V?$allocator@UVkRenderingAttachmentInfo@@@std@@@std@@QEAA@XZ
	??1?$vector@UVkVertexInputAttributeDescription@@V?$allocator@UVkVertexInputAttributeDescription@@@std@@@std@@QEAA@XZ
	??1?$vector@UVkVertexInputBindingDescription@@V?$allocator@UVkVertexInputBindingDescription@@@std@@@std@@QEAA@XZ
	??1?$vector@V?$basic_string_view@DU?$char_traits@D@std@@@std@@V?$allocator@V?$basic_string_view@DU?$char_traits@D@std@@@std@@@2@@std@@QEAA@XZ
	??1?$vector@V?$unique_ptr@VTexture@Gfx@Component@LoFi@@U?$default_delete@VTexture@Gfx@Component@LoFi@@@std@@@std@@V?$allocator@V?$unique_ptr@VTexture@Gfx@Component@LoFi@@U?$default_delete@VTexture@Gfx@Component@LoFi@@@std@@@std@@@2@@std@@QEAA@XZ
	??1?$vector@VGlyphGeometry@msdf_atlas@@V?$allocator@VGlyphGeometry@msdf_atlas@@@std@@@std@@QEAA@XZ
	??1?$vector@VWorker@tf@@V?$allocator@VWorker@tf@@@std@@@std@@QEAA@XZ
	??1?$vector@Vthread@std@@V?$allocator@Vthread@std@@@2@@std@@QEAA@XZ
	??1?$vector@W4VkFormat@@V?$allocator@W4VkFormat@@@std@@@std@@QEAA@XZ
	??1Buffer3F@Gfx@Component@LoFi@@QEAA@XZ
	??1Buffer@Gfx@Component@LoFi@@QEAA@XZ
	??1CFG@spirv_cross@@QEAA@XZ
	??1Charset@msdf_atlas@@QEAA@XZ
	??1Compiler@spirv_cross@@UEAA@XZ
	??1Decoration@Meta@spirv_cross@@QEAA@XZ
	??1Executor@tf@@QEAA@XZ
	??1ExplicitProducer@?$ConcurrentQueue@UContextResourceRecoveryInfo@Internal@LoFi@@UConcurrentQueueDefaultTraits@moodycamel@@@moodycamel@@UEAA@XZ
	??1FontGeometry@msdf_atlas@@QEAA@XZ
	??1FrameGraph@LoFi@@QEAA@XZ
	??1FreeList@Internal@LoFi@@QEAA@XZ
	??1GfxContext@LoFi@@QEAA@XZ
	??1Graph@tf@@QEAA@XZ
	??1ImplicitProducer@?$ConcurrentQueue@UContextResourceRecoveryInfo@Internal@LoFi@@UConcurrentQueueDefaultTraits@moodycamel@@@moodycamel@@UEAA@XZ
	??1Kernel@Gfx@Component@LoFi@@QEAA@XZ
	??1Meta@spirv_cross@@QEAA@XZ
	??1Node@tf@@QEAA@XZ
	??1ObjectPoolGroup@spirv_cross@@QEAA@XZ
	??1ParsedIR@spirv_cross@@QEAA@XZ
	??1PfxContext@LoFi@@QEAA@XZ
	??1PhysicalDevice@@QEAA@XZ
	??1Program@Gfx@Component@LoFi@@QEAA@XZ
	??1ProgramCompilerGroup@Gfx@Component@LoFi@@QEAA@XZ
	??1PushConstantBuffer@Gfx@Component@LoFi@@QEAA@XZ
	??1Runtime@tf@@QEAA@XZ
	??1SPIREntryPoint@spirv_cross@@QEAA@XZ
	??1ShaderResources@spirv_cross@@QEAA@XZ
	??1Summary@TFProfObserver@tf@@QEAA@XZ
	??1Swapchain@Gfx@Component@LoFi@@QEAA@XZ
	??1TFProfManager@tf@@QEAA@XZ
	??1Taskflow@tf@@QEAA@XZ
	??1Texture@Gfx@Component@LoFi@@QEAA@XZ
	??1ThreadExitNotifier@details@moodycamel@@AEAA@XZ
	??1VmaAllocation_T@@QEAA@XZ
	??1VmaAllocator_T@@QEAA@XZ
	??1VmaBlockBufferImageGranularity@@QEAA@XZ
	??1VmaBlockMetadata_TLSF@@UEAA@XZ
	??1VmaBlockVector@@QEAA@XZ
	??1VmaDedicatedAllocationList@@QEAA@XZ
	??1VmaDefragmentationContext_T@@QEAA@XZ
	??1VmaDeviceMemoryBlock@@QEAA@XZ
	??1VmaJsonWriter@@QEAA@XZ
	??1VmaPool_T@@QEAA@XZ
	??1VmaStringBuilder@@QEAA@XZ
	??1VmaVirtualBlock_T@@QEAA@XZ
	??1Window@Gfx@Component@LoFi@@QEAA@XZ
	??1_ExceptionHolder@details@Concurrency@@QEAA@XZ
	??1_Holder@_TaskProcThunk@details@Concurrency@@QEAA@XZ
	??1_PPLTaskChore@_DefaultPPLTaskScheduler@details@Concurrency@@QEAA@XZ
	??1_Sentry_base@?$basic_ostream@DU?$char_traits@D@std@@@std@@QEAA@XZ
	??1_TaskCreationCallstack@details@Concurrency@@QEAA@XZ
	??1_Task_impl_base@details@Concurrency@@UEAA@XZ
	??1cancellation_token@Concurrency@@QEAA@XZ
	??1exception@std@@UEAA@XZ
	??1scheduler_ptr@Concurrency@@QEAA@XZ
	??1sentry@?$basic_ostream@DU?$char_traits@D@std@@@std@@QEAA@XZ
	??1task_options@Concurrency@@QEAA@XZ
	??4?$SmallVectorImpl@H@tf@@QEAAAEAV01@$$QEAV01@@Z
	??4?$basic_registry@W4entity@entt@@V?$allocator@W4entity@entt@@@std@@@entt@@QEAAAEAV01@$$QEAV01@@Z
	??4?$basic_sigh_mixin@V?$basic_storage@W4entity@entt@@W412@V?$allocator@W4entity@entt@@@std@@X@entt@@V?$basic_registry@W4entity@entt@@V?$allocator@W4entity@entt@@@std@@@2@@entt@@QEAAAEAV01@$$QEAV01@@Z
	??4?$basic_sparse_set@W4entity@entt@@V?$allocator@W4entity@entt@@@std@@@entt@@QEAAAEAV01@$$QEAV01@@Z
	??4?$basic_string@DU?$char_traits@D@std@@V?$allocator@D@2@@std@@QEAAAEAV01@$$QEAV01@@Z
	??4?$basic_string@DU?$char_traits@D@std@@V?$allocator@D@2@@std@@QEAAAEAV01@AEBV01@@Z
	??4?$basic_string@DU?$char_traits@D@std@@V?$allocator@D@2@@std@@QEAAAEAV01@QEBD@Z
	??4?$vector@U?$dense_map_node@IV?$basic_any@$0A@$07@entt@@@internal@entt@@V?$allocator@U?$dense_map_node@IV?$basic_any@$0A@$07@entt@@@internal@entt@@@std@@@std@@QEAAAEAV01@$$QEAV01@@Z
	??4?$vector@U?$dense_map_node@IV?$shared_ptr@Ugroup_descriptor@internal@entt@@@std@@@internal@entt@@V?$allocator@U?$dense_map_node@IV?$shared_ptr@Ugroup_descriptor@internal@entt@@@std@@@internal@entt@@@std@@@std@@QEAAAEAV01@$$QEAV01@@Z
	??4?$vector@U?$dense_map_node@IV?$shared_ptr@V?$basic_sparse_set@W4entity@entt@@V?$allocator@W4entity@entt@@@std@@@entt@@@std@@@internal@entt@@V?$allocator@U?$dense_map_node@IV?$shared_ptr@V?$basic_sparse_set@W4entity@entt@@V?$allocator@W4entity@entt@@@std@@@entt@@@std@@@internal@entt@@@std@@@std@@QEAAAEAV01@$$QEAV01@@Z
	??4exception_ptr@std@@QEAAAEAV01@$$T@Z
	??6?$StringStream@$0BAAA@$0BAAA@@spirv_cross@@QEAAAEAV01@I@Z
	??E?$_Grapheme_break_property_iterator@D@std@@QEAAAEAV01@XZ
	??E?$view_iterator@V?$basic_sparse_set@W4entity@entt@@V?$allocator@W4entity@entt@@@std@@@entt@@$00$0A@@internal@entt@@QEAAAEAV012@XZ
	??E?$view_iterator@V?$basic_sparse_set@W4entity@entt@@V?$allocator@W4entity@entt@@@std@@@entt@@$01$0A@@internal@entt@@QEAAAEAV012@XZ
	??E?$view_iterator@V?$basic_sparse_set@W4entity@entt@@V?$allocator@W4entity@entt@@@std@@@entt@@$02$0A@@internal@entt@@QEAAAEAV012@XZ
	??R<lambda_1>@?0???$_Fmt_write@DV?$back_insert_iterator@V?$_Fmt_buffer@D@std@@@std@@M@__p2286@std@@YA?AV?$back_insert_iterator@V?$_Fmt_buffer@D@std@@@2@V32@MAEBU?$_Basic_format_specs@D@2@V_Lazy_locale@2@@Z@QEBA?A?<auto>@@0@Z
	??R<lambda_1>@?0???$_Fmt_write@DV?$back_insert_iterator@V?$_Fmt_buffer@D@std@@@std@@N@__p2286@std@@YA?AV?$back_insert_iterator@V?$_Fmt_buffer@D@std@@@2@V32@NAEBU?$_Basic_format_specs@D@2@V_Lazy_locale@2@@Z@QEBA?A?<auto>@@0@Z
	??R<lambda_1>@?0???$_Fmt_write@DV?$back_insert_iterator@V?$_Fmt_buffer@D@std@@@std@@O@__p2286@std@@YA?AV?$back_insert_iterator@V?$_Fmt_buffer@D@std@@@2@V32@OAEBU?$_Basic_format_specs@D@2@V_Lazy_locale@2@@Z@QEBA?A?<auto>@@0@Z
	??R<lambda_1>@?0???$_Write_integral@DV?$back_insert_iterator@V?$_Fmt_buffer@D@std@@@std@@D@__p2286@std@@YA?AV?$back_insert_iterator@V?$_Fmt_buffer@D@std@@@2@V32@DU?$_Basic_format_specs@D@2@V_Lazy_locale@2@@Z@QEBA?A?<auto>@@0@Z
	??R<lambda_1>@?0???$_Write_integral@DV?$back_insert_iterator@V?$_Fmt_buffer@D@std@@@std@@E@__p2286@std@@YA?AV?$back_insert_iterator@V?$_Fmt_buffer@D@std@@@2@V32@EU?$_Basic_format_specs@D@2@V_Lazy_locale@2@@Z@QEBA?A?<auto>@@0@Z
	??R<lambda_1>@?0???$_Write_integral@DV?$back_insert_iterator@V?$_Fmt_buffer@D@std@@@std@@H@__p2286@std@@YA?AV?$back_insert_iterator@V?$_Fmt_buffer@D@std@@@2@V32@HU?$_Basic_format_specs@D@2@V_Lazy_locale@2@@Z@QEBA?A?<auto>@@0@Z
	??R<lambda_1>@?0???$_Write_integral@DV?$back_insert_iterator@V?$_Fmt_buffer@D@std@@@std@@I@__p2286@std@@YA?AV?$back_insert_iterator@V?$_Fmt_buffer@D@std@@@2@V32@IU?$_Basic_format_specs@D@2@V_Lazy_locale@2@@Z@QEBA?A?<auto>@@0@Z
	??R<lambda_1>@?0???$_Write_integral@DV?$back_insert_iterator@V?$_Fmt_buffer@D@std@@@std@@_J@__p2286@std@@YA?AV?$back_insert_iterator@V?$_Fmt_buffer@D@std@@@2@V32@_JU?$_Basic_format_specs@D@2@V_Lazy_locale@2@@Z@QEBA?A?<auto>@@0@Z
	??R<lambda_1>@?0???$_Write_integral@DV?$back_insert_iterator@V?$_Fmt_buffer@D@std@@@std@@_K@__p2286@std@@YA?AV?$back_insert_iterator@V?$_Fmt_buffer@D@std@@@2@V32@_KU?$_Basic_format_specs@D@2@V_Lazy_locale@2@@Z@QEBA?A?<auto>@@0@Z
	??R<lambda_1>@?0??_ScheduleContinuationTask@_Task_impl_base@details@Concurrency@@QEAAXPEAU_ContinuationTaskHandleBase@34@@Z@QEBA?A?<auto>@@XZ
	??R<lambda_1>@?0??generate@?$ImmediateAtlasGenerator@M$03$1?mtsdfGenerator@msdf_atlas@@YAXAEBU?$BitmapRef@M$03@msdfgen@@AEBVGlyphGeometry@2@AEBUGeneratorAttributes@2@@ZV?$BitmapAtlasStorage@E$03@2@@msdf_atlas@@QEAAXPEBVGlyphGeometry@3@H@Z@QEBA@HH@Z
	??R?$_Rng_from_urng_v2@_KV?$mersenne_twister_engine@I$0CA@$0CHA@$0BIN@$0BP@$0JJAILANP@$0L@$0PPPPPPPP@$06$0JNCMFGIA@$0P@$0OPMGAAAA@$0BC@$0GMAHIJGF@@std@@@std@@QEAA_K_K@Z
	??R?$mersenne_twister@I$0CA@$0CHA@$0BIN@$0BP@$0JJAILANP@$0L@$06$0JNCMFGIA@$0P@$0OPMGAAAA@$0BC@@std@@QEAAIXZ
	??RSamplerCIHash@GfxContext@LoFi@@QEBA_KAEBUVkSamplerCreateInfo@@@Z
	??_7?$_Associated_state@H@std@@6B@
	??_7?$_CancellationTokenCallback@V<lambda_1>@?0??_RegisterCancellation@_Task_impl_base@details@Concurrency@@QEAAXV?$weak_ptr@U_Task_impl_base@details@Concurrency@@@std@@@Z@@details@Concurrency@@6B@
	??_7?$_Deferred_async_state@X@std@@6B@
	??_7?$_Fmt_buffer@D@std@@6B@
	??_7?$_Fmt_iterator_buffer@V?$back_insert_iterator@V?$basic_string@DU?$char_traits@D@std@@V?$allocator@D@2@@std@@@std@@DU_Fmt_buffer_traits@2@@std@@6B@
	??_7?$_Func_impl_no_alloc@V<lambda_1>@?0???R1?0??_ScheduleContinuationTask@_Task_impl_base@details@Concurrency@@QEAAXPEAU_ContinuationTaskHandleBase@45@@Z@QEBA?A?<auto>@@XZ@X$$V@std@@6B@
	??_7?$_Func_impl_no_alloc@V<lambda_1>@?0??_CancelAndRunContinuations@?$_Task_impl@E@details@Concurrency@@UEAA_N_N00AEBV?$shared_ptr@U_ExceptionHolder@details@Concurrency@@@std@@@Z@X$$V@std@@6B@
	??_7?$_Func_impl_no_alloc@V<lambda_1>@?0??_MakeVoidToUnitFunc@details@Concurrency@@YA?AV?$function@$$A6AEXZ@std@@AEBV?$function@$$A6AXXZ@6@@Z@E$$V@std@@6B@
	??_7?$_Func_impl_no_alloc@V<lambda_1>@?0??_ScheduleContinuationTask@_Task_impl_base@details@Concurrency@@QEAAXPEAU_ContinuationTaskHandleBase@45@@Z@X$$V@std@@6B@
	??_7?$_Func_impl_no_alloc@V<lambda_1>@?0??generate@?$ImmediateAtlasGenerator@M$03$1?mtsdfGenerator@msdf_atlas@@YAXAEBU?$BitmapRef@M$03@msdfgen@@AEBVGlyphGeometry@2@AEBUGeneratorAttributes@2@@ZV?$BitmapAtlasStorage@E$03@2@@msdf_atlas@@QEAAXPEBVGlyphGeometry@4@H@Z@_NHH@std@@6B@
	??_7?$_Packaged_state@$$A6AXXZ@std@@6B@
	??_7?$_Ref_count_obj2@U?$_Task_impl@E@details@Concurrency@@@std@@6B@
	??_7?$_Ref_count_obj2@U_ExceptionHolder@details@Concurrency@@@std@@6B@
	??_7?$_Ref_count_obj2@VTFProfObserver@tf@@@std@@6B@
	??_7?$_Ref_count_obj_alloc3@V?$basic_sigh_mixin@V?$basic_storage@UTagDataChanged@Gfx@Component@LoFi@@W4entity@entt@@V?$allocator@UTagDataChanged@Gfx@Component@LoFi@@@std@@X@entt@@V?$basic_registry@W4entity@entt@@V?$allocator@W4entity@entt@@@std@@@2@@entt@@V?$allocator@W4entity@entt@@@std@@@std@@6B@
	??_7?$_Ref_count_obj_alloc3@V?$basic_sigh_mixin@V?$basic_storage@UTagDataUpdateCompleted@Gfx@Component@LoFi@@W4entity@entt@@V?$allocator@UTagDataUpdateCompleted@Gfx@Component@LoFi@@@std@@X@entt@@V?$basic_registry@W4entity@entt@@V?$allocator@W4entity@entt@@@std@@@2@@entt@@V?$allocator@W4entity@entt@@@std@@@std@@6B@
	??_7?$_Ref_count_obj_alloc3@V?$basic_sigh_mixin@V?$basic_storage@VBuffer3F@Gfx@Component@LoFi@@W4entity@entt@@V?$allocator@VBuffer3F@Gfx@Component@LoFi@@@std@@X@entt@@V?$basic_registry@W4entity@entt@@V?$allocator@W4entity@entt@@@std@@@2@@entt@@V?$allocator@W4entity@entt@@@std@@@std@@6B@
	??_7?$_Ref_count_obj_alloc3@V?$basic_sigh_mixin@V?$basic_storage@VBuffer@Gfx@Component@LoFi@@W4entity@entt@@V?$allocator@VBuffer@Gfx@Component@LoFi@@@std@@X@entt@@V?$basic_registry@W4entity@entt@@V?$allocator@W4entity@entt@@@std@@@2@@entt@@V?$allocator@W4entity@entt@@@std@@@std@@6B@
	??_7?$_Ref_count_obj_alloc3@V?$basic_sigh_mixin@V?$basic_storage@VKernel@Gfx@Component@LoFi@@W4entity@entt@@V?$allocator@VKernel@Gfx@Component@LoFi@@@std@@X@entt@@V?$basic_registry@W4entity@entt@@V?$allocator@W4entity@entt@@@std@@@2@@entt@@V?$allocator@W4entity@entt@@@std@@@std@@6B@
	??_7?$_Ref_count_obj_alloc3@V?$basic_sigh_mixin@V?$basic_storage@VProgram@Gfx@Component@LoFi@@W4entity@entt@@V?$allocator@VProgram@Gfx@Component@LoFi@@@std@@X@entt@@V?$basic_registry@W4entity@entt@@V?$allocator@W4entity@entt@@@std@@@2@@entt@@V?$allocator@W4entity@entt@@@std@@@std@@6B@
	??_7?$_Ref_count_obj_alloc3@V?$basic_sigh_mixin@V?$basic_storage@VSwapchain@Gfx@Component@LoFi@@W4entity@entt@@V?$allocator@VSwapchain@Gfx@Component@LoFi@@@std@@X@entt@@V?$basic_registry@W4entity@entt@@V?$allocator@W4entity@entt@@@std@@@2@@entt@@V?$allocator@W4entity@entt@@@std@@@std@@6B@
	??_7?$_Ref_count_obj_alloc3@V?$basic_sigh_mixin@V?$basic_storage@VTexture@Gfx@Component@LoFi@@W4entity@entt@@V?$allocator@VTexture@Gfx@Component@LoFi@@@std@@X@entt@@V?$basic_registry@W4entity@entt@@V?$allocator@W4entity@entt@@@std@@@2@@entt@@V?$allocator@W4entity@entt@@@std@@@std@@6B@
	??_7?$_Ref_count_obj_alloc3@V?$basic_sigh_mixin@V?$basic_storage@VWindow@Gfx@Component@LoFi@@W4entity@entt@@V?$allocator@VWindow@Gfx@Component@LoFi@@@std@@X@entt@@V?$basic_registry@W4entity@entt@@V?$allocator@W4entity@entt@@@std@@@2@@entt@@V?$allocator@W4entity@entt@@@std@@@std@@6B@
	??_7?$_Task_async_state@X@std@@6B@
	??_7?$_Task_impl@E@details@Concurrency@@6B@
	??_7?$basic_filebuf@DU?$char_traits@D@std@@@std@@6B@
	??_7?$basic_ifstream@DU?$char_traits@D@std@@@std@@6B@
	??_7?$basic_ofstream@DU?$char_traits@D@std@@@std@@6B@
	??_7?$basic_ostringstream@DU?$char_traits@D@std@@V?$allocator@D@2@@std@@6B@
	??_7?$basic_sigh_mixin@V?$basic_storage@UTagDataChanged@Gfx@Component@LoFi@@W4entity@entt@@V?$allocator@UTagDataChanged@Gfx@Component@LoFi@@@std@@X@entt@@V?$basic_registry@W4entity@entt@@V?$allocator@W4entity@entt@@@std@@@2@@entt@@6B@
	??_7?$basic_sigh_mixin@V?$basic_storage@UTagDataUpdateCompleted@Gfx@Component@LoFi@@W4entity@entt@@V?$allocator@UTagDataUpdateCompleted@Gfx@Component@LoFi@@@std@@X@entt@@V?$basic_registry@W4entity@entt@@V?$allocator@W4entity@entt@@@std@@@2@@entt@@6B@
	??_7?$basic_sigh_mixin@V?$basic_storage@VBuffer3F@Gfx@Component@LoFi@@W4entity@entt@@V?$allocator@VBuffer3F@Gfx@Component@LoFi@@@std@@X@entt@@V?$basic_registry@W4entity@entt@@V?$allocator@W4entity@entt@@@std@@@2@@entt@@6B@
	??_7?$basic_sigh_mixin@V?$basic_storage@VBuffer@Gfx@Component@LoFi@@W4entity@entt@@V?$allocator@VBuffer@Gfx@Component@LoFi@@@std@@X@entt@@V?$basic_registry@W4entity@entt@@V?$allocator@W4entity@entt@@@std@@@2@@entt@@6B@
	??_7?$basic_sigh_mixin@V?$basic_storage@VKernel@Gfx@Component@LoFi@@W4entity@entt@@V?$allocator@VKernel@Gfx@Component@LoFi@@@std@@X@entt@@V?$basic_registry@W4entity@entt@@V?$allocator@W4entity@entt@@@std@@@2@@entt@@6B@
	??_7?$basic_sigh_mixin@V?$basic_storage@VProgram@Gfx@Component@LoFi@@W4entity@entt@@V?$allocator@VProgram@Gfx@Component@LoFi@@@std@@X@entt@@V?$basic_registry@W4entity@entt@@V?$allocator@W4entity@entt@@@std@@@2@@entt@@6B@
	??_7?$basic_sigh_mixin@V?$basic_storage@VSwapchain@Gfx@Component@LoFi@@W4entity@entt@@V?$allocator@VSwapchain@Gfx@Component@LoFi@@@std@@X@entt@@V?$basic_registry@W4entity@entt@@V?$allocator@W4entity@entt@@@std@@@2@@entt@@6B@
	??_7?$basic_sigh_mixin@V?$basic_storage@VTexture@Gfx@Component@LoFi@@W4entity@entt@@V?$allocator@VTexture@Gfx@Component@LoFi@@@std@@X@entt@@V?$basic_registry@W4entity@entt@@V?$allocator@W4entity@entt@@@std@@@2@@entt@@6B@
	??_7?$basic_sigh_mixin@V?$basic_storage@VWindow@Gfx@Component@LoFi@@W4entity@entt@@V?$allocator@VWindow@Gfx@Component@LoFi@@@std@@X@entt@@V?$basic_registry@W4entity@entt@@V?$allocator@W4entity@entt@@@std@@@2@@entt@@6B@
	??_7?$basic_sigh_mixin@V?$basic_storage@W4entity@entt@@W412@V?$allocator@W4entity@entt@@@std@@X@entt@@V?$basic_registry@W4entity@entt@@V?$allocator@W4entity@entt@@@std@@@2@@entt@@6B@
	??_7?$basic_sparse_set@W4entity@entt@@V?$allocator@W4entity@entt@@@std@@@entt@@6B@
	??_7?$basic_storage@UTagDataChanged@Gfx@Component@LoFi@@W4entity@entt@@V?$allocator@UTagDataChanged@Gfx@Component@LoFi@@@std@@X@entt@@6B@
	??_7?$basic_storage@UTagDataUpdateCompleted@Gfx@Component@LoFi@@W4entity@entt@@V?$allocator@UTagDataUpdateCompleted@Gfx@Component@LoFi@@@std@@X@entt@@6B@
	??_7?$basic_storage@VBuffer3F@Gfx@Component@LoFi@@W4entity@entt@@V?$allocator@VBuffer3F@Gfx@Component@LoFi@@@std@@X@entt@@6B@
	??_7?$basic_storage@VBuffer@Gfx@Component@LoFi@@W4entity@entt@@V?$allocator@VBuffer@Gfx@Component@LoFi@@@std@@X@entt@@6B@
	??_7?$basic_storage@VKernel@Gfx@Component@LoFi@@W4entity@entt@@V?$allocator@VKernel@Gfx@Component@LoFi@@@std@@X@entt@@6B@
	??_7?$basic_storage@VProgram@Gfx@Component@LoFi@@W4entity@entt@@V?$allocator@VProgram@Gfx@Component@LoFi@@@std@@X@entt@@6B@
	??_7?$basic_storage@VSwapchain@Gfx@Component@LoFi@@W4entity@entt@@V?$allocator@VSwapchain@Gfx@Component@LoFi@@@std@@X@entt@@6B@
	??_7?$basic_storage@VTexture@Gfx@Component@LoFi@@W4entity@entt@@V?$allocator@VTexture@Gfx@Component@LoFi@@@std@@X@entt@@6B@
	??_7?$basic_storage@VWindow@Gfx@Component@LoFi@@W4entity@entt@@V?$allocator@VWindow@Gfx@Component@LoFi@@@std@@X@entt@@6B@
	??_7?$basic_storage@W4entity@entt@@W412@V?$allocator@W4entity@entt@@@std@@X@entt@@6B@
	??_7?$basic_stringbuf@DU?$char_traits@D@std@@V?$allocator@D@2@@std@@6B@
	??_7?$numpunct@D@std@@6B@
	??_7Compiler@spirv_cross@@6B@
	??_7CompilerError@spirv_cross@@6B@
	??_7ExplicitProducer@?$ConcurrentQueue@UContextResourceRecoveryInfo@Internal@LoFi@@UConcurrentQueueDefaultTraits@moodycamel@@@moodycamel@@6B@
	??_7ImplicitProducer@?$ConcurrentQueue@UContextResourceRecoveryInfo@Internal@LoFi@@UConcurrentQueueDefaultTraits@moodycamel@@@moodycamel@@6B@
	??_7ObserverInterface@tf@@6B@
	??_7ProducerBase@?$ConcurrentQueue@UContextResourceRecoveryInfo@Internal@LoFi@@UConcurrentQueueDefaultTraits@moodycamel@@@moodycamel@@6B@
	??_7TFProfObserver@tf@@6B@
	??_7VmaBlockMetadata@@6B@
	??_7VmaBlockMetadata_Linear@@6B@
	??_7VmaBlockMetadata_TLSF@@6B@
	??_7_CancellationTokenRegistration@details@Concurrency@@6B@
	??_7_DefaultPPLTaskScheduler@details@Concurrency@@6B@
	??_7_Future_error_category2@std@@6B@
	??_7_Generic_error_category@std@@6B@
	??_7_RefCounter@details@Concurrency@@6B@
	??_7_System_error@std@@6B@
	??_7_TaskProcHandle@details@Concurrency@@6B@
	??_7_Task_impl_base@details@Concurrency@@6B@
	??_7bad_alloc@std@@6B@
	??_7bad_array_new_length@std@@6B@
	??_7bad_cast@std@@6B@
	??_7bad_optional_access@std@@6B@
	??_7exception@std@@6B@
	??_7format_error@std@@6B@
	??_7future_error@std@@6B@
	??_7invalid_operation@Concurrency@@6B@
	??_7logic_error@std@@6B@
	??_7runtime_error@std@@6B@
	??_7system_error@std@@6B@
	??_D?$basic_ifstream@DU?$char_traits@D@std@@@std@@QEAAXXZ
	??_D?$basic_ostringstream@DU?$char_traits@D@std@@V?$allocator@D@2@@std@@QEAAXXZ
	??__E?Messages@MessageManager@LoFi@@0V?$list@UMessage@LoFi@@V?$allocator@UMessage@LoFi@@@std@@@std@@A@@YAXXZ
	??__E?ShaderTypeMap@Program@Gfx@Component@LoFi@@0V?$map@V?$basic_string@DU?$char_traits@D@std@@V?$allocator@D@2@@std@@W4glslang_stage_t@@U?$less@V?$basic_string@DU?$char_traits@D@std@@V?$allocator@D@2@@std@@@2@V?$allocator@U?$pair@$$CBV?$basic_string@DU?$char_traits@D@std@@V?$allocator@D@2@@std@@W4glslang_stage_t@@@std@@@2@@std@@A@@YAXXZ
	??__E?service@?$locator@Vmeta_ctx@entt@@@entt@@0V?$shared_ptr@Vmeta_ctx@entt@@@std@@A@@YAXXZ
	?AcquireNextImage@Swapchain@Gfx@Component@LoFi@@QEAAXXZ
	?Add@VmaStringBuilder@@QEAAXPEBD@Z
	?AddAllocation@VmaCurrentBudgetData@@QEAAXI_K@Z
	?AddDetailedStatistics@VmaBlockMetadata_Linear@@UEBAXAEAUVmaDetailedStatistics@@@Z
	?AddDetailedStatistics@VmaBlockMetadata_TLSF@@UEBAXAEAUVmaDetailedStatistics@@@Z
	?AddDetailedStatistics@VmaBlockVector@@QEAAXAEAUVmaDetailedStatistics@@@Z
	?AddDetailedStatistics@VmaDedicatedAllocationList@@QEAAXAEAUVmaDetailedStatistics@@@Z
	?AddNumber@VmaStringBuilder@@QEAAXI@Z
	?AddNumber@VmaStringBuilder@@QEAAX_K@Z
	?AddPointer@VmaStringBuilder@@QEAAXPEBX@Z
	?AddStatistics@VmaBlockMetadata_Linear@@UEBAXAEAUVmaStatistics@@@Z
	?AddStatistics@VmaBlockMetadata_TLSF@@UEBAXAEAUVmaStatistics@@@Z
	?AddStatistics@VmaBlockVector@@QEAAXAEAUVmaStatistics@@@Z
	?AddStatistics@VmaDedicatedAllocationList@@QEAAXAEAUVmaStatistics@@@Z
	?Alloc@VmaBlockMetadata_Linear@@UEAAXAEBUVmaAllocationRequest@@W4VmaSuballocationType@@PEAX@Z
	?Alloc@VmaBlockMetadata_TLSF@@UEAAXAEBUVmaAllocationRequest@@W4VmaSuballocationType@@PEAX@Z
	?AllocInOtherBlock@VmaDefragmentationContext_T@@AEAA_N_K0AEAUMoveAllocationData@1@AEAVVmaBlockVector@@@Z
	?AllocPage@VmaBlockBufferImageGranularity@@AEAAXAEAURegionInfo@1@E@Z
	?AllocPages@VmaBlockBufferImageGranularity@@QEAAXE_K0@Z
	?Allocate@VmaBlockVector@@QEAA?AW4VkResult@@_K0AEBUVmaAllocationCreateInfo@@W4VmaSuballocationType@@0PEAPEAUVmaAllocation_T@@@Z
	?Allocate@VmaVirtualBlock_T@@QEAA?AW4VkResult@@AEBUVmaVirtualAllocationCreateInfo@@AEAPEAUVmaVirtualAllocation_T@@PEA_K@Z
	?AllocateDedicatedMemory@VmaAllocator_T@@AEAA?AW4VkResult@@PEAUVmaPool_T@@_KW4VmaSuballocationType@@AEAVVmaDedicatedAllocationList@@I_N444PEAXMPEAUVkBuffer_T@@PEAUVkImage_T@@UVmaBufferImageUsage@@1PEAPEAUVmaAllocation_T@@PEBX@Z
	?AllocateDedicatedMemoryPage@VmaAllocator_T@@AEAA?AW4VkResult@@PEAUVmaPool_T@@_KW4VmaSuballocationType@@IAEBUVkMemoryAllocateInfo@@_N44PEAXPEAPEAUVmaAllocation_T@@@Z
	?AllocateFromBlock@VmaBlockVector@@AEAA?AW4VkResult@@PEAVVmaDeviceMemoryBlock@@_K1IPEAXW4VmaSuballocationType@@IPEAPEAUVmaAllocation_T@@@Z
	?AllocateMemory@VmaAllocator_T@@QEAA?AW4VkResult@@AEBUVkMemoryRequirements@@_N1PEAUVkBuffer_T@@PEAUVkImage_T@@UVmaBufferImageUsage@@AEBUVmaAllocationCreateInfo@@W4VmaSuballocationType@@_KPEAPEAUVmaAllocation_T@@@Z
	?AllocateMemoryOfType@VmaAllocator_T@@AEAA?AW4VkResult@@PEAUVmaPool_T@@_K1_NPEAUVkBuffer_T@@PEAUVkImage_T@@UVmaBufferImageUsage@@AEBUVmaAllocationCreateInfo@@IW4VmaSuballocationType@@AEAVVmaDedicatedAllocationList@@AEAVVmaBlockVector@@1PEAPEAUVmaAllocation_T@@@Z
	?AllocatePage@VmaBlockVector@@AEAA?AW4VkResult@@_K0AEBUVmaAllocationCreateInfo@@W4VmaSuballocationType@@PEAPEAUVmaAllocation_T@@@Z
	?AllocateVulkanMemory@VmaAllocator_T@@QEAA?AW4VkResult@@PEBUVkMemoryAllocateInfo@@PEAPEAUVkDeviceMemory_T@@@Z
	?AnalyzeConfig@Program@Gfx@Component@LoFi@@AEAA_NAEBU?$pair@V?$basic_string@DU?$char_traits@D@std@@V?$allocator@D@2@@std@@V?$vector@V?$basic_string@DU?$char_traits@D@std@@V?$allocator@D@2@@std@@V?$allocator@V?$basic_string@DU?$char_traits@D@std@@V?$allocator@D@2@@std@@@2@@2@@std@@AEAV?$basic_string@DU?$char_traits@D@std@@V?$allocator@D@2@@6@@Z
	?AsReadBuffer@FrameGraph@LoFi@@QEBAXW4entity@entt@@W4KernelType@2@@Z
	?AsReadBuffer@GfxContext@LoFi@@QEBAXW4entity@entt@@W4KernelType@2@@Z
	?AsReadTexure@FrameGraph@LoFi@@QEBAXW4entity@entt@@W4KernelType@2@@Z
	?AsReadTexure@GfxContext@LoFi@@QEBAXW4entity@entt@@W4KernelType@2@@Z
	?AsSampledTexure@FrameGraph@LoFi@@QEBAXW4entity@entt@@W4KernelType@2@@Z
	?AsSampledTexure@GfxContext@LoFi@@QEBAXW4entity@entt@@W4KernelType@2@@Z
	?AsWriteBuffer@FrameGraph@LoFi@@QEBAXW4entity@entt@@W4KernelType@2@@Z
	?AsWriteBuffer@GfxContext@LoFi@@QEBAXW4entity@entt@@W4KernelType@2@@Z
	?AsWriteTexture@FrameGraph@LoFi@@QEBAXW4entity@entt@@W4KernelType@2@@Z
	?AsWriteTexture@GfxContext@LoFi@@QEBAXW4entity@entt@@W4KernelType@2@@Z
	?BarrierLayout@Buffer3F@Gfx@Component@LoFi@@QEBAXPEAUVkCommandBuffer_T@@W4KernelType@4@W4ResourceUsage@4@@Z
	?BarrierLayout@Buffer@Gfx@Component@LoFi@@QEAAXPEAUVkCommandBuffer_T@@W4KernelType@4@W4ResourceUsage@4@@Z
	?BarrierLayout@Texture@Gfx@Component@LoFi@@QEAAXPEAUVkCommandBuffer_T@@W4KernelType@4@W4ResourceUsage@4@@Z
	?BeginArray@VmaJsonWriter@@QEAAX_N@Z
	?BeginComputePass@FrameGraph@LoFi@@QEAAXXZ
	?BeginComputePass@GfxContext@LoFi@@QEBAXXZ
	?BeginFrame@FrameGraph@LoFi@@QEAAXXZ
	?BeginFrame@GfxContext@LoFi@@QEAAXXZ
	?BeginFrame@Swapchain@Gfx@Component@LoFi@@QEBAXPEAUVkCommandBuffer_T@@@Z
	?BeginObject@VmaJsonWriter@@QEAAX_N@Z
	?BeginRenderPass@FrameGraph@LoFi@@QEAAXAEBV?$vector@URenderPassBeginArgument@LoFi@@V?$allocator@URenderPassBeginArgument@LoFi@@@std@@@std@@@Z
	?BeginSecondaryCommandBuffer@FrameGraph@LoFi@@AEAAXXZ
	?BeginString@VmaJsonWriter@@QEAAXPEBD@Z
	?BeginValue@VmaJsonWriter@@AEAAX_N@Z
	?BindBufferMemory@VmaAllocator_T@@QEAA?AW4VkResult@@PEAUVmaAllocation_T@@_KPEAUVkBuffer_T@@PEBX@Z
	?BindBufferMemory@VmaDeviceMemoryBlock@@QEAA?AW4VkResult@@QEAUVmaAllocator_T@@QEAUVmaAllocation_T@@_KPEAUVkBuffer_T@@PEBX@Z
	?BindImageMemory@VmaAllocator_T@@QEAA?AW4VkResult@@PEAUVmaAllocation_T@@_KPEAUVkImage_T@@PEBX@Z
	?BindImageMemory@VmaDeviceMemoryBlock@@QEAA?AW4VkResult@@QEAUVmaAllocator_T@@QEAUVmaAllocation_T@@_KPEAUVkImage_T@@PEBX@Z
	?BindIndexBuffer@FrameGraph@LoFi@@QEBAXW4entity@entt@@_K@Z
	?BindKernel@FrameGraph@LoFi@@QEAAXW4entity@entt@@@Z
	?BindVertexBuffer@FrameGraph@LoFi@@QEAAXW4entity@entt@@II_K@Z
	?BindVulkanBuffer@VmaAllocator_T@@QEAA?AW4VkResult@@PEAUVkDeviceMemory_T@@_KPEAUVkBuffer_T@@PEBX@Z
	?BindVulkanImage@VmaAllocator_T@@QEAA?AW4VkResult@@PEAUVkDeviceMemory_T@@_KPEAUVkImage_T@@PEBX@Z
	?BlockAllocMap@VmaAllocation_T@@QEAAXXZ
	?BlockAllocUnmap@VmaAllocation_T@@QEAAXXZ
	?BuildStatsString@VmaDedicatedAllocationList@@QEAAXAEAVVmaJsonWriter@@@Z
	?BuildStatsString@VmaVirtualBlock_T@@QEBAX_NAEAVVmaStringBuilder@@@Z
	?CalcAllocationParams@VmaAllocator_T@@AEAA?AW4VkResult@@AEAUVmaAllocationCreateInfo@@_N1@Z
	?CalcMaxBlockSize@VmaBlockVector@@AEBA_KXZ
	?CalcMemTypeParams@VmaAllocator_T@@AEAA?AW4VkResult@@AEAUVmaAllocationCreateInfo@@I_K1@Z
	?CalcPreferredBlockSize@VmaAllocator_T@@AEAA_KI@Z
	?CalculateDetailedStatistics@VmaVirtualBlock_T@@QEBAXAEAUVmaDetailedStatistics@@@Z
	?CalculateGlobalMemoryTypeBits@VmaAllocator_T@@AEBAIXZ
	?CalculateGpuDefragmentationMemoryTypeBits@VmaAllocator_T@@AEBAIXZ
	?CalculatePoolStatistics@VmaAllocator_T@@QEAAXPEAUVmaPool_T@@PEAUVmaDetailedStatistics@@@Z
	?CalculateStatistics@VmaAllocator_T@@QEAAXPEAUVmaTotalStatistics@@@Z
	?CheckBlock@VmaBlockMetadata_TLSF@@AEAA_NAEAVBlock@1@I_K1W4VmaSuballocationType@@PEAUVmaAllocationRequest@@@Z
	?CheckConflictAndAlignUp@VmaBlockBufferImageGranularity@@QEBA_NAEA_K_K11W4VmaSuballocationType@@@Z
	?CheckCorruption@VmaAllocator_T@@QEAA?AW4VkResult@@I@Z
	?CheckCorruption@VmaBlockMetadata_Linear@@UEAA?AW4VkResult@@PEBX@Z
	?CheckCorruption@VmaBlockMetadata_TLSF@@UEAA?AW4VkResult@@PEBX@Z
	?CheckCorruption@VmaBlockVector@@QEAA?AW4VkResult@@XZ
	?CheckCorruption@VmaDeviceMemoryBlock@@QEAA?AW4VkResult@@PEAUVmaAllocator_T@@@Z
	?CheckCounters@VmaDefragmentationContext_T@@AEAA?AW4CounterStatus@1@_K@Z
	?CheckPoolCorruption@VmaAllocator_T@@QEAA?AW4VkResult@@PEAUVmaPool_T@@@Z
	?Clean@Buffer@Gfx@Component@LoFi@@AEAAXXZ
	?Clean@Texture@Gfx@Component@LoFi@@AEAAXXZ
	?CleanupAfterFree@VmaBlockMetadata_Linear@@AEAAXXZ
	?Clear@MessageManager@LoFi@@SAXXZ
	?Clear@VmaBlockBufferImageGranularity@@QEAAXXZ
	?Clear@VmaBlockMetadata_Linear@@UEAAXXZ
	?Clear@VmaBlockMetadata_TLSF@@UEAAXXZ
	?ClearViews@Buffer@Gfx@Component@LoFi@@QEAAXXZ
	?ClearViews@Texture@Gfx@Component@LoFi@@QEAAXXZ
	?CmdBeginRenderPass@GfxContext@LoFi@@QEBAXAEBV?$vector@URenderPassBeginArgument@LoFi@@V?$allocator@URenderPassBeginArgument@LoFi@@@std@@@std@@@Z
	?CmdBindIndexBuffer@GfxContext@LoFi@@QEBAXW4entity@entt@@_K@Z
	?CmdBindKernel@GfxContext@LoFi@@QEBAXW4entity@entt@@@Z
	?CmdBindVertexBuffer@GfxContext@LoFi@@QEBAXW4entity@entt@@II_K@Z
	?CmdComputeDispatch@GfxContext@LoFi@@QEBAXIII@Z
	?CmdDraw@GfxContext@LoFi@@QEBAXIIII@Z
	?CmdDrawIndex@GfxContext@LoFi@@QEBAXIIIHI@Z
	?CmdDrawIndexedIndirect@GfxContext@LoFi@@QEBAXW4entity@entt@@_KII@Z
	?CmdEndRenderPass@GfxContext@LoFi@@QEBAXXZ
	?CmdPushConstant@GfxContext@LoFi@@QEBAXW4entity@entt@@@Z
	?CmdPushConstants@Kernel@Gfx@Component@LoFi@@QEBAXPEAUVkCommandBuffer_T@@@Z
	?CmdPushConstants@PushConstantBuffer@Gfx@Component@LoFi@@QEBAXPEAUVkCommandBuffer_T@@@Z
	?CmdSetScissor@GfxContext@LoFi@@QEBAXHHII@Z
	?CmdSetScissor@GfxContext@LoFi@@QEBAXUVkRect2D@@@Z
	?CmdSetScissorAuto@GfxContext@LoFi@@QEBAXXZ
	?CmdSetViewport@GfxContext@LoFi@@QEBAXAEBUVkViewport@@@Z
	?CmdSetViewport@GfxContext@LoFi@@QEBAXMMMMMM@Z
	?CmdSetViewportAuto@GfxContext@LoFi@@QEBAX_N@Z
	?CommitAllocationRequest@VmaBlockVector@@AEAA?AW4VkResult@@AEAUVmaAllocationRequest@@PEAVVmaDeviceMemoryBlock@@_KIPEAXW4VmaSuballocationType@@PEAPEAUVmaAllocation_T@@@Z
	?CompileCompute@Program@Gfx@Component@LoFi@@AEAAXV?$basic_string_view@DU?$char_traits@D@std@@@std@@@Z
	?CompileFromCode@Program@Gfx@Component@LoFi@@CA_NPEBDW4glslang_stage_t@@AEAV?$vector@IV?$allocator@I@std@@@std@@AEAV?$basic_string@DU?$char_traits@D@std@@V?$allocator@D@2@@7@@Z
	?CompileGraphics@Program@Gfx@Component@LoFi@@AEAAXAEBV?$vector@U?$pair@V?$basic_string_view@DU?$char_traits@D@std@@@std@@W4glslang_stage_t@@@std@@V?$allocator@U?$pair@V?$basic_string_view@DU?$char_traits@D@std@@@std@@W4glslang_stage_t@@@std@@@2@@std@@@Z
	?ComputeDefragmentation@VmaDefragmentationContext_T@@AEAA_NAEAVVmaBlockVector@@_K@Z
	?ComputeDefragmentation_Balanced@VmaDefragmentationContext_T@@AEAA_NAEAVVmaBlockVector@@_K_N@Z
	?ComputeDefragmentation_Extensive@VmaDefragmentationContext_T@@AEAA_NAEAVVmaBlockVector@@_K@Z
	?ComputeDefragmentation_Fast@VmaDefragmentationContext_T@@AEAA_NAEAVVmaBlockVector@@@Z
	?ComputeDefragmentation_Full@VmaDefragmentationContext_T@@AEAA_NAEAVVmaBlockVector@@@Z
	?ComputeDispatch@FrameGraph@LoFi@@QEBAXIII@Z
	?ConfigParseStage@Program@Gfx@Component@LoFi@@AEAAXV?$basic_string_view@DU?$char_traits@D@std@@@std@@@Z
	?ContinueString@VmaJsonWriter@@QEAAXI@Z
	?ContinueString@VmaJsonWriter@@QEAAXPEBD@Z
	?ContinueString@VmaJsonWriter@@QEAAX_K@Z
	?ContinueString_Pointer@VmaJsonWriter@@QEAAXPEBX@Z
	?CopyAllocationToMemory@VmaAllocator_T@@QEAA?AW4VkResult@@PEAUVmaAllocation_T@@_KPEAX1@Z
	?CopyMemoryToAllocation@VmaAllocator_T@@QEAA?AW4VkResult@@PEBXPEAUVmaAllocation_T@@_K2@Z
	?CreateAATexture2D@GfxContext@LoFi@@QEAA?AW4entity@entt@@W4VkFormat@@II@Z
	?CreateAllocationRequest@VmaBlockMetadata_Linear@@UEAA_N_K0_NW4VmaSuballocationType@@IPEAUVmaAllocationRequest@@@Z
	?CreateAllocationRequest@VmaBlockMetadata_TLSF@@UEAA_N_K0_NW4VmaSuballocationType@@IPEAUVmaAllocationRequest@@@Z
	?CreateAllocationRequest_LowerAddress@VmaBlockMetadata_Linear@@AEAA_N_K0W4VmaSuballocationType@@IPEAUVmaAllocationRequest@@@Z
	?CreateAllocationRequest_UpperAddress@VmaBlockMetadata_Linear@@AEAA_N_K0W4VmaSuballocationType@@IPEAUVmaAllocationRequest@@@Z
	?CreateAsCompute@Kernel@Gfx@Component@LoFi@@AEAAXPEBVProgram@234@@Z
	?CreateAsGraphics@Kernel@Gfx@Component@LoFi@@AEAAXPEBVProgram@234@@Z
	?CreateBlock@VmaBlockVector@@AEAA?AW4VkResult@@_KPEA_K@Z
	?CreateBuffer3F@GfxContext@LoFi@@QEAA?AW4entity@entt@@PEAX_K_N@Z
	?CreateBuffer3F@GfxContext@LoFi@@QEAA?AW4entity@entt@@_K_N@Z
	?CreateBuffer@Buffer@Gfx@Component@LoFi@@AEAAXAEBUVkBufferCreateInfo@@AEBUVmaAllocationCreateInfo@@@Z
	?CreateBuffer@GfxContext@LoFi@@QEAA?AW4entity@entt@@PEBX_K_N@Z
	?CreateBuffer@GfxContext@LoFi@@QEAA?AW4entity@entt@@_K_N@Z
	?CreateKernel@GfxContext@LoFi@@QEAA?AW4entity@entt@@W434@@Z
	?CreateMinBlocks@VmaBlockVector@@QEAA?AW4VkResult@@XZ
	?CreateNewBlock@?$VmaPoolAllocator@UVmaAllocation_T@@@@AEAAAEAUItemBlock@1@XZ
	?CreateNewBlock@?$VmaPoolAllocator@VBlock@VmaBlockMetadata_TLSF@@@@AEAAAEAUItemBlock@1@XZ
	?CreateOrRecreateSwapChain@Swapchain@Gfx@Component@LoFi@@AEAAXXZ
	?CreatePool@VmaAllocator_T@@QEAA?AW4VkResult@@PEBUVmaPoolCreateInfo@@PEAPEAUVmaPool_T@@@Z
	?CreateProgram@GfxContext@LoFi@@QEAA?AW4entity@entt@@AEBV?$vector@V?$basic_string_view@DU?$char_traits@D@std@@@std@@V?$allocator@V?$basic_string_view@DU?$char_traits@D@std@@@std@@@2@@std@@V?$basic_string_view@DU?$char_traits@D@std@@@6@1@Z
	?CreateProgramFromFile@GfxContext@LoFi@@QEAA?AW4entity@entt@@AEBV?$vector@V?$basic_string_view@DU?$char_traits@D@std@@@std@@V?$allocator@V?$basic_string_view@DU?$char_traits@D@std@@@std@@@2@@std@@V?$basic_string_view@DU?$char_traits@D@std@@@6@1@Z
	?CreateTexture2D@GfxContext@LoFi@@QEAA?AW4entity@entt@@PEBX_KW4VkFormat@@III@Z
	?CreateTexture2D@GfxContext@LoFi@@QEAA?AW4entity@entt@@W4VkFormat@@III@Z
	?CreateView@Buffer@Gfx@Component@LoFi@@QEAAPEAUVkBufferView_T@@UVkBufferViewCreateInfo@@@Z
	?CreateView@Texture@Gfx@Component@LoFi@@QEAAPEAUVkImageView_T@@UVkImageViewCreateInfo@@@Z
	?CreateViewFromCurrentViewCIs@Buffer@Gfx@Component@LoFi@@AEAAXXZ
	?CreateWindow@GfxContext@LoFi@@QEAA?AW4entity@entt@@PEBDII@Z
	?DebugLogAllAllocations@VmaBlockMetadata_Linear@@UEBAXXZ
	?DebugLogAllAllocations@VmaBlockMetadata_TLSF@@UEBAXXZ
	?DebugLogAllocation@VmaBlockMetadata@@IEBAX_K0PEAX@Z
	?DedicatedAllocMap@VmaAllocation_T@@QEAA?AW4VkResult@@PEAUVmaAllocator_T@@PEAPEAX@Z
	?DedicatedAllocUnmap@VmaAllocation_T@@QEAAXPEAUVmaAllocator_T@@@Z
	?DefragmentPassBegin@VmaDefragmentationContext_T@@QEAA?AW4VkResult@@AEAUVmaDefragmentationPassMoveInfo@@@Z
	?DefragmentPassEnd@VmaDefragmentationContext_T@@QEAA?AW4VkResult@@AEAUVmaDefragmentationPassMoveInfo@@@Z
	?Destroy@VmaBlockBufferImageGranularity@@QEAAXPEBUVkAllocationCallbacks@@@Z
	?Destroy@VmaDeviceMemoryBlock@@QEAAXPEAUVmaAllocator_T@@@Z
	?DestroyBuffer@Buffer@Gfx@Component@LoFi@@AEAAXXZ
	?DestroyHandle@GfxContext@LoFi@@QEAAXW4entity@entt@@@Z
	?DestroyPool@VmaAllocator_T@@QEAAXPEAUVmaPool_T@@@Z
	?DestroyTexture@Texture@Gfx@Component@LoFi@@AEAAXXZ
	?DestroyWindow@GfxContext@LoFi@@QEAAXI@Z
	?DestroyWindow@GfxContext@LoFi@@QEAAXW4entity@entt@@@Z
	?DispatchGenerateCommands@PfxContext@LoFi@@QEAAXXZ
	?Draw@FrameGraph@LoFi@@QEBAXIIII@Z
	?DrawBox@PfxContext@LoFi@@QEAAXU?$vec@$01M$0A@@glm@@UPParamBox@2@MU?$vec@$03E$0A@@4@@Z
	?DrawCircle@PfxContext@LoFi@@QEAAXU?$vec@$01M$0A@@glm@@UPParamCircle@2@MU?$vec@$03E$0A@@4@@Z
	?DrawIndex@FrameGraph@LoFi@@QEBAXIIIHI@Z
	?DrawIndexedIndirect@FrameGraph@LoFi@@QEBAXW4entity@entt@@_KII@Z
	?DrawNGon@PfxContext@LoFi@@QEAAXU?$vec@$01M$0A@@glm@@UPParamRoundNGon@2@MU?$vec@$03E$0A@@4@@Z
	?DrawRoundBox@PfxContext@LoFi@@QEAAXU?$vec@$01M$0A@@glm@@UPParamRoundBox@2@MU?$vec@$03E$0A@@4@@Z
	?EmitDrawCommand@PfxContext@LoFi@@QEAAXXZ
	?EndArray@VmaJsonWriter@@QEAAXXZ
	?EndComputePass@FrameGraph@LoFi@@QEAAXXZ
	?EndComputePass@GfxContext@LoFi@@QEAAXXZ
	?EndFrame@FrameGraph@LoFi@@QEBAXXZ
	?EndFrame@GfxContext@LoFi@@QEAAXXZ
	?EndFrame@Swapchain@Gfx@Component@LoFi@@QEBAXPEAUVkCommandBuffer_T@@@Z
	?EndObject@VmaJsonWriter@@QEAAXXZ
	?EndRenderPass@FrameGraph@LoFi@@QEAAXXZ
	?EndSecondaryCommandBuffer@FrameGraph@LoFi@@AEAAXXZ
	?EndString@VmaJsonWriter@@QEAAXPEBD@Z
	?ExpandSecondaryCommandBuffer@FrameGraph@LoFi@@AEAAXXZ
	?FillAllocation@VmaAllocator_T@@QEAAXQEAUVmaAllocation_T@@E@Z
	?FillConstantValue@Kernel@Gfx@Component@LoFi@@QEAA_NPEBX_K@Z
	?FillKernelConstant@GfxContext@LoFi@@QEAA_NW4entity@entt@@PEBX_K@Z
	?FindFreeBlock@VmaBlockMetadata_TLSF@@AEBAPEAVBlock@1@_KAEAI@Z
	?FindMemoryTypeIndex@VmaAllocator_T@@QEBA?AW4VkResult@@IPEBUVmaAllocationCreateInfo@@UVmaBufferImageUsage@@PEAI@Z
	?FindSuballocation@VmaBlockMetadata_Linear@@AEBAAEAUVmaSuballocation@@_K@Z
	?FinishValidation@VmaBlockBufferImageGranularity@@QEBA_NAEAUValidationContext@1@@Z
	?FlushOrInvalidateAllocation@VmaAllocator_T@@QEAA?AW4VkResult@@PEAUVmaAllocation_T@@_K1W4VMA_CACHE_OPERATION@@@Z
	?FlushOrInvalidateAllocations@VmaAllocator_T@@QEAA?AW4VkResult@@IPEBQEAUVmaAllocation_T@@PEB_K1W4VMA_CACHE_OPERATION@@@Z
	?Free@VmaAllocationObjectAllocator@@QEAAXPEAUVmaAllocation_T@@@Z
	?Free@VmaBlockMetadata_Linear@@UEAAXPEAUVmaAllocHandle_T@@@Z
	?Free@VmaBlockMetadata_TLSF@@UEAAXPEAUVmaAllocHandle_T@@@Z
	?Free@VmaBlockVector@@QEAAXQEAUVmaAllocation_T@@@Z
	?FreeDedicatedMemory@VmaAllocator_T@@AEAAXQEAUVmaAllocation_T@@@Z
	?FreeMemory@VmaAllocator_T@@QEAAX_KPEBQEAUVmaAllocation_T@@@Z
	?FreeName@VmaAllocation_T@@QEAAXPEAUVmaAllocator_T@@@Z
	?FreePages@VmaBlockBufferImageGranularity@@QEAAX_K0@Z
	?FreeVulkanMemory@VmaAllocator_T@@QEAAXI_KPEAUVkDeviceMemory_T@@@Z
	?Get@MessageManager@LoFi@@SA?AV?$basic_string@DU?$char_traits@D@std@@V?$allocator@D@2@@std@@H@Z
	?GetAddress@Buffer@Gfx@Component@LoFi@@QEBA_KXZ
	?GetAllocHandle@VmaAllocation_T@@QEBAPEAUVmaAllocHandle_T@@XZ
	?GetAllocationCallbacks@VmaVirtualBlock_T@@QEBAPEBUVkAllocationCallbacks@@XZ
	?GetAllocationCount@VmaBlockMetadata_Linear@@UEBA_KXZ
	?GetAllocationCount@VmaBlockMetadata_TLSF@@UEBA_KXZ
	?GetAllocationInfo2@VmaAllocator_T@@QEAAXPEAUVmaAllocation_T@@PEAUVmaAllocationInfo2@@@Z
	?GetAllocationInfo@VmaAllocator_T@@QEAAXPEAUVmaAllocation_T@@PEAUVmaAllocationInfo@@@Z
	?GetAllocationInfo@VmaBlockMetadata_Linear@@UEAAXPEAUVmaAllocHandle_T@@AEAUVmaVirtualAllocationInfo@@@Z
	?GetAllocationInfo@VmaBlockMetadata_TLSF@@UEAAXPEAUVmaAllocHandle_T@@AEAUVmaVirtualAllocationInfo@@@Z
	?GetAllocationInfo@VmaVirtualBlock_T@@QEAAXPEAUVmaVirtualAllocation_T@@AEAUVmaVirtualAllocationInfo@@@Z
	?GetAllocationListBegin@VmaBlockMetadata_Linear@@UEBAPEAUVmaAllocHandle_T@@XZ
	?GetAllocationListBegin@VmaBlockMetadata_TLSF@@UEBAPEAUVmaAllocHandle_T@@XZ
	?GetAllocationOffset@VmaBlockMetadata_Linear@@UEBA_KPEAUVmaAllocHandle_T@@@Z
	?GetAllocationOffset@VmaBlockMetadata_TLSF@@UEBA_KPEAUVmaAllocHandle_T@@@Z
	?GetAllocationUserData@VmaBlockMetadata_Linear@@UEBAPEAXPEAUVmaAllocHandle_T@@@Z
	?GetAllocationUserData@VmaBlockMetadata_TLSF@@UEBAPEAXPEAUVmaAllocHandle_T@@@Z
	?GetBuffer@Buffer3F@Gfx@Component@LoFi@@QEBA?AW4entity@entt@@XZ
	?GetBufferAddress@Buffer3F@Gfx@Component@LoFi@@QEBA_KI@Z
	?GetBufferBindlessAddress@GfxContext@LoFi@@QEAA_KW4entity@entt@@@Z
	?GetBufferMemoryRequirements@VmaAllocator_T@@QEBAXPEAUVkBuffer_T@@AEAUVkMemoryRequirements@@AEA_N2@Z
	?GetCurrentFence@GfxContext@LoFi@@AEBAPEAUVkFence_T@@XZ
	?GetCurrentFrameIndex@GfxContext@LoFi@@QEBAIXZ
	?GetFlushOrInvalidateRange@VmaAllocator_T@@AEBA_NPEAUVmaAllocation_T@@_K1AEAUVkMappedMemoryRange@@@Z
	?GetFreeRegionsCount@VmaBlockMetadata_Linear@@UEBA_KXZ
	?GetFreeRegionsCount@VmaBlockMetadata_TLSF@@UEBA_KXZ
	?GetGpuDefragmentationMemoryTypeBits@VmaAllocator_T@@QEAAIXZ
	?GetHeapBudgets@VmaAllocator_T@@QEAAXPEAUVmaBudget@@II@Z
	?GetImageLayoutString@Internal@LoFi@@YAPEBDW4VkImageLayout@@@Z
	?GetImageMemoryRequirements@VmaAllocator_T@@QEBAXPEAUVkImage_T@@AEAUVkMemoryRequirements@@AEA_N2@Z
	?GetListIndex@VmaBlockMetadata_TLSF@@AEBAIEG@Z
	?GetListIndex@VmaBlockMetadata_TLSF@@AEBAI_K@Z
	?GetMappedData@VmaAllocation_T@@QEBAPEAXXZ
	?GetMemory@VmaAllocation_T@@QEBAPEAUVkDeviceMemory_T@@XZ
	?GetMoveData@VmaDefragmentationContext_T@@CA?AUMoveAllocationData@1@PEAUVmaAllocHandle_T@@PEAVVmaBlockMetadata@@@Z
	?GetNextAllocation@VmaBlockMetadata_Linear@@UEBAPEAUVmaAllocHandle_T@@PEAU2@@Z
	?GetNextAllocation@VmaBlockMetadata_TLSF@@UEBAPEAUVmaAllocHandle_T@@PEAU2@@Z
	?GetNextFreeRegionSize@VmaBlockMetadata_Linear@@UEBA_KPEAUVmaAllocHandle_T@@@Z
	?GetNextFreeRegionSize@VmaBlockMetadata_TLSF@@UEBA_KPEAUVmaAllocHandle_T@@@Z
	?GetOffset@VmaAllocation_T@@QEBA_KXZ
	?GetParentPool@VmaAllocation_T@@QEBAPEAUVmaPool_T@@XZ
	?GetPoolStatistics@VmaAllocator_T@@QEAAXPEAUVmaPool_T@@PEAUVmaStatistics@@@Z
	?GetResourceUsageString@Internal@LoFi@@YAPEBDW4ResourceUsage@2@@Z
	?GetSize@Window@Gfx@Component@LoFi@@QEBA?AUVkExtent2D@@XZ
	?GetStatistics@VmaVirtualBlock_T@@QEBAXAEAUVmaStatistics@@@Z
	?GetSumFreeSize@VmaBlockMetadata_Linear@@UEBA_KXZ
	?GetSumFreeSize@VmaBlockMetadata_TLSF@@UEBA_KXZ
	?GetTextureBindlessIndex@GfxContext@LoFi@@QEAAIW4entity@entt@@@Z
	?GetVkFormatFromString@Internal@LoFi@@YA?AW4VkFormat@@AEBV?$basic_string@DU?$char_traits@D@std@@V?$allocator@D@2@@std@@@Z
	?GetVkFormatFromStringSimpled@Internal@LoFi@@YA?AW4VkFormat@@AEBV?$basic_string@DU?$char_traits@D@std@@V?$allocator@D@2@@std@@@Z
	?GetVkFormatString@Internal@LoFi@@YAPEBDW4VkFormat@@@Z
	?GetVkFormatStringSimpled@Internal@LoFi@@YAPEBDW4VkFormat@@@Z
	?GetVkResultString@Internal@LoFi@@YAPEBDW4VkResult@@@Z
	?GetWindowID@Window@Gfx@Component@LoFi@@QEBAIXZ
	?GetWindowPtr@Window@Gfx@Component@LoFi@@QEBAPEAUSDL_Window@@XZ
	?GoNextFrame@GfxContext@LoFi@@AEAAXXZ
	?HasEmptyBlock@VmaBlockVector@@AEAA_NXZ
	?HelperShaderStageToString@Gfx@Component@LoFi@@YAPEBDW4glslang_stage_t@@@Z
	?ImportVulkanFunctions@VmaAllocator_T@@AEAAXPEBUVmaVulkanFunctions@@@Z
	?ImportVulkanFunctions_Custom@VmaAllocator_T@@AEAAXPEBUVmaVulkanFunctions@@@Z
	?IncrementCounters@VmaDefragmentationContext_T@@AEAA_N_K@Z
	?IncrementallySortBlocks@VmaBlockVector@@AEAAXXZ
	?Init@GfxContext@LoFi@@QEAAXXZ
	?Init@VmaAllocator_T@@QEAA?AW4VkResult@@PEBUVmaAllocatorCreateInfo@@@Z
	?Init@VmaBlockBufferImageGranularity@@QEAAXPEBUVkAllocationCallbacks@@_K@Z
	?Init@VmaBlockMetadata@@UEAAX_K@Z
	?Init@VmaBlockMetadata_Linear@@UEAAX_K@Z
	?Init@VmaBlockMetadata_TLSF@@UEAAX_K@Z
	?Init@VmaDeviceMemoryBlock@@QEAAXPEAUVmaAllocator_T@@PEAUVmaPool_T@@IPEAUVkDeviceMemory_T@@_KII3@Z
	?InitBlockAllocation@VmaAllocation_T@@QEAAXPEAVVmaDeviceMemoryBlock@@PEAUVmaAllocHandle_T@@_K2IW4VmaSuballocationType@@_N@Z
	?InitDedicatedAllocation@VmaAllocation_T@@QEAAXPEAUVmaPool_T@@IPEAUVkDeviceMemory_T@@W4VmaSuballocationType@@PEAX_K@Z
	?InsertFreeBlock@VmaBlockMetadata_TLSF@@AEAAXPEAVBlock@1@@Z
	?IsCorruptionDetectionEnabled@VmaBlockVector@@QEBA_NXZ
	?IsDepthOnlyFormat@Internal@LoFi@@YA_NW4VkFormat@@@Z
	?IsDepthStencilFormat@Internal@LoFi@@YA_NW4VkFormat@@@Z
	?IsDepthStencilOnlyFormat@Internal@LoFi@@YA_NW4VkFormat@@@Z
	?IsEmpty@VmaBlockMetadata_Linear@@UEBA_NXZ
	?IsEmpty@VmaBlockMetadata_TLSF@@UEBA_NXZ
	?IsEmpty@VmaBlockVector@@QEAA_NXZ
	?IsEmpty@VmaDedicatedAllocationList@@QEAA_NXZ
	?IsStencilOnlyFormat@Internal@LoFi@@YA_NW4VkFormat@@@Z
	?LoadFont@PfxContext@LoFi@@QEAA_NPEBD@Z
	?Log@MessageManager@LoFi@@SAXW4MessageType@2@V?$basic_string_view@DU?$char_traits@D@std@@@std@@@Z
	?MakeBindlessIndexTexture@GfxContext@LoFi@@AEAAIW4entity@entt@@I@Z
	?Map@Buffer@Gfx@Component@LoFi@@QEAAPEAXXZ
	?Map@VmaAllocator_T@@QEAA?AW4VkResult@@PEAUVmaAllocation_T@@PEAPEAX@Z
	?Map@VmaDeviceMemoryBlock@@QEAA?AW4VkResult@@PEAUVmaAllocator_T@@IPEAPEAX@Z
	?MapRenderTarget@Swapchain@Gfx@Component@LoFi@@AEBAXPEAUVkCommandBuffer_T@@@Z
	?MapRenderTargetToWindow@GfxContext@LoFi@@QEAAXW4entity@entt@@0@Z
	?MergeBlock@VmaBlockMetadata_TLSF@@AEAAXPEAVBlock@1@0@Z
	?MoveDataToFreeBlocks@VmaDefragmentationContext_T@@AEAA_NW4VmaSuballocationType@@AEAVVmaBlockVector@@_KAEA_N33@Z
	?NewDrawInstanceData@PfxContext@LoFi@@AEAAAEAUGenInstanceData@2@XZ
	?OffsetToPageIndex@VmaBlockBufferImageGranularity@@AEBAI_K@Z
	?ParseCS@Program@Gfx@Component@LoFi@@AEAAXAEBV?$vector@IV?$allocator@I@std@@@std@@@Z
	?ParseConfig@Program@Gfx@Component@LoFi@@AEAA_NV?$basic_string_view@DU?$char_traits@D@std@@@std@@AEAV?$basic_string@DU?$char_traits@D@std@@V?$allocator@D@2@@6@@Z
	?ParseFS@Program@Gfx@Component@LoFi@@AEAAXAEBV?$vector@IV?$allocator@I@std@@@std@@@Z
	?ParseVS@Program@Gfx@Component@LoFi@@AEAAXAEBV?$vector@IV?$allocator@I@std@@@std@@@Z
	?PollEvent@GfxContext@LoFi@@QEAAPEAXXZ
	?PopCanvasSize@PfxContext@LoFi@@QEAAXXZ
	?PopScissor@PfxContext@LoFi@@QEAAXXZ
	?PopShadow@PfxContext@LoFi@@QEAAXXZ
	?PopStrock@PfxContext@LoFi@@QEAAXXZ
	?PostAlloc@VmaDeviceMemoryBlock@@QEAAXPEAUVmaAllocator_T@@@Z
	?PostFree@VmaDeviceMemoryBlock@@QEAAXPEAUVmaAllocator_T@@@Z
	?PrepareWindowRenderTarget@GfxContext@LoFi@@AEAAXXZ
	?PrintDetailedMap@VmaAllocator_T@@QEAAXAEAVVmaJsonWriter@@@Z
	?PrintDetailedMap@VmaBlockMetadata_Linear@@UEBAXAEAVVmaJsonWriter@@@Z
	?PrintDetailedMap@VmaBlockMetadata_TLSF@@UEBAXAEAVVmaJsonWriter@@@Z
	?PrintDetailedMap@VmaBlockVector@@QEAAXAEAVVmaJsonWriter@@@Z
	?PrintDetailedMap_Allocation@VmaBlockMetadata@@IEBAXAEAVVmaJsonWriter@@_K1PEAX@Z
	?PrintDetailedMap_Begin@VmaBlockMetadata@@IEBAXAEAVVmaJsonWriter@@_K11@Z
	?PrintDetailedMap_End@VmaBlockMetadata@@IEBAXAEAVVmaJsonWriter@@@Z
	?PrintDetailedMap_UnusedRange@VmaBlockMetadata@@IEBAXAEAVVmaJsonWriter@@_K1@Z
	?PrintParameters@VmaAllocation_T@@QEBAXAEAVVmaJsonWriter@@@Z
	?PushCanvasSize@PfxContext@LoFi@@QEAAXU?$vec@$01G$0A@@glm@@@Z
	?PushConstant@FrameGraph@LoFi@@QEBAXW4entity@entt@@@Z
	?PushScissor@PfxContext@LoFi@@QEAAXU?$vec@$03G$0A@@glm@@@Z
	?PushShadow@PfxContext@LoFi@@QEAAXAEBUShadowParameter@2@@Z
	?PushStrock@PfxContext@LoFi@@QEAAXAEBUStrockTypeParameter@2@@Z
	?ReallocWithinBlock@VmaDefragmentationContext_T@@AEAA_NAEAVVmaBlockVector@@PEAVVmaDeviceMemoryBlock@@@Z
	?RecognitionShaderTypeFromSource@Program@Gfx@Component@LoFi@@CA?AV?$optional@W4glslang_stage_t@@@std@@V?$basic_string_view@DU?$char_traits@D@std@@@6@@Z
	?RecoveryAllContextResourceImmediately@GfxContext@LoFi@@AEAAXXZ
	?RecoveryContextResource@GfxContext@LoFi@@AEAAXAEBUContextResourceRecoveryInfo@Internal@2@@Z
	?RecoveryContextResourceBuffer@GfxContext@LoFi@@AEBAXAEBUContextResourceRecoveryInfo@Internal@2@@Z
	?RecoveryContextResourceBufferView@GfxContext@LoFi@@AEBAXAEBUContextResourceRecoveryInfo@Internal@2@@Z
	?RecoveryContextResourceImage@GfxContext@LoFi@@AEAAXAEBUContextResourceRecoveryInfo@Internal@2@@Z
	?RecoveryContextResourceImageView@GfxContext@LoFi@@AEBAXAEBUContextResourceRecoveryInfo@Internal@2@@Z
	?RecoveryContextResourcePipeline@GfxContext@LoFi@@AEBAXAEBUContextResourceRecoveryInfo@Internal@2@@Z
	?RecoveryContextResourcePipelineLayout@GfxContext@LoFi@@AEBAXAEBUContextResourceRecoveryInfo@Internal@2@@Z
	?RecoveryContextResourceWindow@GfxContext@LoFi@@AEAAXAEBUContextResourceRecoveryInfo@Internal@2@@Z
	?Recreate@Buffer@Gfx@Component@LoFi@@QEAAX_K@Z
	?RecreateAllViews@Buffer@Gfx@Component@LoFi@@AEAAXXZ
	?Register@VmaDedicatedAllocationList@@QEAAXPEAUVmaAllocation_T@@@Z
	?ReleaseAllViews@Buffer@Gfx@Component@LoFi@@AEBAXXZ
	?ReleaseAllViews@Texture@Gfx@Component@LoFi@@AEBAXXZ
	?Remove@VmaBlockVector@@AEAAXPEAVVmaDeviceMemoryBlock@@@Z
	?RemoveAllocation@VmaCurrentBudgetData@@QEAAXI_K@Z
	?RemoveFreeBlock@VmaBlockMetadata_TLSF@@AEAAXPEAVBlock@1@@Z
	?Reset@PfxContext@LoFi@@QEAAXXZ
	?Resize@Texture@Gfx@Component@LoFi@@QEAAXII@Z
	?Resize@Window@Gfx@Component@LoFi@@QEBAXHH@Z
	?ResizeBuffer@GfxContext@LoFi@@QEAAXW4entity@entt@@_K@Z
	?RoundupAllocRequest@VmaBlockBufferImageGranularity@@QEBAXW4VmaSuballocationType@@AEA_K1@Z
	?SetAllocationUserData@VmaBlockMetadata_Linear@@UEAAXPEAUVmaAllocHandle_T@@PEAX@Z
	?SetAllocationUserData@VmaBlockMetadata_TLSF@@UEAAXPEAUVmaAllocHandle_T@@PEAX@Z
	?SetBindlessIndex@Texture@Gfx@Component@LoFi@@AEAAXV?$optional@I@std@@@Z
	?SetConstantValue@Kernel@Gfx@Component@LoFi@@QEAA_NAEBV?$basic_string@DU?$char_traits@D@std@@V?$allocator@D@2@@std@@PEBX@Z
	?SetCurrentFrameIndex@VmaAllocator_T@@QEAAXI@Z
	?SetData@Buffer3F@Gfx@Component@LoFi@@QEAAXPEAX_K1@Z
	?SetData@Buffer@Gfx@Component@LoFi@@QEAAXPEBX_K@Z
	?SetData@Texture@Gfx@Component@LoFi@@QEAAXPEBX_K@Z
	?SetFrameResourceData@GfxContext@LoFi@@QEAAXW4entity@entt@@PEAX_K2@Z
	?SetKernelConstant@GfxContext@LoFi@@QEAA_NW4entity@entt@@AEBV?$basic_string@DU?$char_traits@D@std@@V?$allocator@D@2@@std@@PEAX@Z
	?SetMappedRenderTarget@Swapchain@Gfx@Component@LoFi@@QEAAXW4entity@entt@@@Z
	?SetName@VmaAllocation_T@@QEAAXPEAUVmaAllocator_T@@PEBD@Z
	?SetName@VmaPool_T@@QEAAXPEBD@Z
	?SetScissor@FrameGraph@LoFi@@QEBAXUVkRect2D@@@Z
	?SetScissorAuto@FrameGraph@LoFi@@QEBAXXZ
	?SetTextureSampler@GfxContext@LoFi@@QEAAXW4entity@entt@@AEBUVkSamplerCreateInfo@@@Z
	?SetValue@PushConstantBuffer@Gfx@Component@LoFi@@QEAAXAEBV?$basic_string@DU?$char_traits@D@std@@V?$allocator@D@2@@std@@PEBX@Z
	?SetViewport@FrameGraph@LoFi@@QEBAXAEBUVkViewport@@@Z
	?SetViewportAuto@FrameGraph@LoFi@@QEBAX_N@Z
	?ShouldCompact1st@VmaBlockMetadata_Linear@@AEBA_NXZ
	?Shutdown@GfxContext@LoFi@@AEAAXXZ
	?SizeToMemoryClass@VmaBlockMetadata_TLSF@@AEBAE_K@Z
	?SizeToSecondIndex@VmaBlockMetadata_TLSF@@AEBAG_KE@Z
	?SortByFreeSize@VmaBlockVector@@AEAAXXZ
	?StageRecoveryContextResource@GfxContext@LoFi@@AEAAXXZ
	?StartValidation@VmaBlockBufferImageGranularity@@QEBA?AUValidationContext@1@PEBUVkAllocationCallbacks@@_N@Z
	?SwapBlockAllocation@VmaAllocation_T@@QEAAEPEAUVmaAllocator_T@@PEAU1@@Z
	?Unmap@Buffer@Gfx@Component@LoFi@@QEAAXXZ
	?Unmap@VmaAllocator_T@@QEAAXPEAUVmaAllocation_T@@@Z
	?Unmap@VmaDeviceMemoryBlock@@QEAAXPEAUVmaAllocator_T@@I@Z
	?Unregister@VmaDedicatedAllocationList@@QEAAXPEAUVmaAllocation_T@@@Z
	?Update@Buffer@Gfx@Component@LoFi@@AEAAXPEAUVkCommandBuffer_T@@@Z
	?Update@Texture@Gfx@Component@LoFi@@AEAAXPEAUVkCommandBuffer_T@@@Z
	?UpdateAll@Buffer3F@Gfx@Component@LoFi@@SAXXZ
	?UpdateAll@Buffer@Gfx@Component@LoFi@@CAXPEAUVkCommandBuffer_T@@@Z
	?UpdateAll@Texture@Gfx@Component@LoFi@@CAXPEAUVkCommandBuffer_T@@@Z
	?UpdateFrameResource@Buffer3F@Gfx@Component@LoFi@@AEAAXXZ
	?UpdateVectorStatistics@VmaDefragmentationContext_T@@AEAAXAEAVVmaBlockVector@@AEAUStateBalanced@1@@Z
	?UpdateVulkanBudget@VmaAllocator_T@@AEAAXXZ
	?UploadBuffer@GfxContext@LoFi@@QEAAXW4entity@entt@@PEBX_K@Z
	?UploadTexture2D@GfxContext@LoFi@@QEAAXW4entity@entt@@PEBX_K@Z
	?Validate@VmaBlockBufferImageGranularity@@QEBA_NAEAUValidationContext@1@_K1@Z
	?Validate@VmaBlockMetadata_Linear@@UEBA_NXZ
	?Validate@VmaBlockMetadata_TLSF@@UEBA_NXZ
	?Validate@VmaDedicatedAllocationList@@QEAA_NXZ
	?Validate@VmaDeviceMemoryBlock@@QEBA_NXZ
	?ValidateMagicValueAfterAllocation@VmaDeviceMemoryBlock@@QEAA?AW4VkResult@@PEAUVmaAllocator_T@@_K1@Z
	?ValidateVulkanFunctions@VmaAllocator_T@@AEAAXXZ
	?WriteBool@VmaJsonWriter@@QEAAX_N@Z
	?WriteIndent@VmaJsonWriter@@AEAAX_N@Z
	?WriteMagicValueAfterAllocation@VmaDeviceMemoryBlock@@QEAA?AW4VkResult@@PEAUVmaAllocator_T@@_K1@Z
	?WriteNull@VmaJsonWriter@@QEAAXXZ
	?WriteNumber@VmaJsonWriter@@QEAAXI@Z
	?WriteNumber@VmaJsonWriter@@QEAAX_K@Z
	?WriteString@VmaJsonWriter@@QEAAXPEBD@Z
	?_Assign_grow@?$_Hash_vec@V?$allocator@V?$_List_unchecked_const_iterator@V?$_List_val@U?$_List_simple_types@V?$shared_ptr@VObserverInterface@tf@@@std@@@std@@@std@@U_Iterator_base0@2@@std@@@std@@@std@@QEAAX_KV?$_List_unchecked_const_iterator@V?$_List_val@U?$_List_simple_types@V?$shared_ptr@VObserverInterface@tf@@@std@@@std@@@std@@U_Iterator_base0@2@@2@@Z
	?_Assign_grow@?$_Hash_vec@V?$allocator@V?$_List_unchecked_iterator@V?$_List_val@U?$_List_simple_types@U?$pair@$$CBV?$basic_string@DU?$char_traits@D@std@@V?$allocator@D@2@@std@@V?$unordered_map@V?$basic_string@DU?$char_traits@D@std@@V?$allocator@D@2@@std@@_KU?$hash@V?$basic_string@DU?$char_traits@D@std@@V?$allocator@D@2@@std@@@2@U?$equal_to@V?$basic_string@DU?$char_traits@D@std@@V?$allocator@D@2@@std@@@2@V?$allocator@U?$pair@$$CBV?$basic_string@DU?$char_traits@D@std@@V?$allocator@D@2@@std@@_K@std@@@2@@2@@std@@@std@@@std@@@std@@@std@@@std@@QEAAX_KV?$_List_unchecked_iterator@V?$_List_val@U?$_List_simple_types@U?$pair@$$CBV?$basic_string@DU?$char_traits@D@std@@V?$allocator@D@2@@std@@V?$unordered_map@V?$basic_string@DU?$char_traits@D@std@@V?$allocator@D@2@@std@@_KU?$hash@V?$basic_string@DU?$char_traits@D@std@@V?$allocator@D@2@@std@@@2@U?$equal_to@V?$basic_string@DU?$char_traits@D@std@@V?$allocator@D@2@@std@@@2@V?$allocator@U?$pair@$$CBV?$basic_string@DU?$char_traits@D@std@@V?$allocator@D@2@@std@@_K@std@@@2@@2@@std@@@std@@@std@@@2@@Z
	?_Assign_grow@?$_Hash_vec@V?$allocator@V?$_List_unchecked_iterator@V?$_List_val@U?$_List_simple_types@U?$pair@$$CBV?$basic_string@DU?$char_traits@D@std@@V?$allocator@D@2@@std@@W4VkFormat@@@std@@@std@@@std@@@std@@@std@@@std@@QEAAX_KV?$_List_unchecked_iterator@V?$_List_val@U?$_List_simple_types@U?$pair@$$CBV?$basic_string@DU?$char_traits@D@std@@V?$allocator@D@2@@std@@W4VkFormat@@@std@@@std@@@std@@@2@@Z
	?_Assign_grow@?$_Hash_vec@V?$allocator@V?$_List_unchecked_iterator@V?$_List_val@U?$_List_simple_types@U?$pair@$$CBV?$basic_string@DU?$char_traits@D@std@@V?$allocator@D@2@@std@@_K@std@@@std@@@std@@@std@@@std@@@std@@QEAAX_KV?$_List_unchecked_iterator@V?$_List_val@U?$_List_simple_types@U?$pair@$$CBV?$basic_string@DU?$char_traits@D@std@@V?$allocator@D@2@@std@@_K@std@@@std@@@std@@@2@@Z
	?_Assign_grow@?$_Hash_vec@V?$allocator@V?$_List_unchecked_iterator@V?$_List_val@U?$_List_simple_types@U?$pair@$$CBVid@thread@std@@_K@std@@@std@@@std@@@std@@@std@@@std@@QEAAX_KV?$_List_unchecked_iterator@V?$_List_val@U?$_List_simple_types@U?$pair@$$CBVid@thread@std@@_K@std@@@std@@@std@@@2@@Z
	?_Bridge@_TaskProcThunk@details@Concurrency@@SAXPEAX@Z
	?_Call_immediate@?$_Packaged_state@$$A6AXXZ@std@@QEAAXXZ
	?_Callback@_PPLTaskChore@_DefaultPPLTaskScheduler@details@Concurrency@@CAXPEAX@Z
	?_CancelAndRunContinuations@?$_Task_impl@E@details@Concurrency@@UEAA_N_N00AEBV?$shared_ptr@U_ExceptionHolder@details@Concurrency@@@std@@@Z
	?_CancelWithException@_Task_impl_base@details@Concurrency@@QEAA_NAEBVexception_ptr@std@@@Z
	?_Change_array@?$vector@U?$dense_map_node@IV?$shared_ptr@V?$basic_sparse_set@W4entity@entt@@V?$allocator@W4entity@entt@@@std@@@entt@@@std@@@internal@entt@@V?$allocator@U?$dense_map_node@IV?$shared_ptr@V?$basic_sparse_set@W4entity@entt@@V?$allocator@W4entity@entt@@@std@@@entt@@@std@@@internal@entt@@@std@@@std@@AEAAXQEAU?$dense_map_node@IV?$shared_ptr@V?$basic_sparse_set@W4entity@entt@@V?$allocator@W4entity@entt@@@std@@@entt@@@std@@@internal@entt@@_K1@Z
	?_Change_array@?$vector@U?$dense_map_node@V?$basic_string@DU?$char_traits@D@std@@V?$allocator@D@2@@std@@UPushConstantMemberInfo@Gfx@Component@LoFi@@@internal@entt@@V?$allocator@U?$dense_map_node@V?$basic_string@DU?$char_traits@D@std@@V?$allocator@D@2@@std@@UPushConstantMemberInfo@Gfx@Component@LoFi@@@internal@entt@@@std@@@std@@AEAAXQEAU?$dense_map_node@V?$basic_string@DU?$char_traits@D@std@@V?$allocator@D@2@@std@@UPushConstantMemberInfo@Gfx@Component@LoFi@@@internal@entt@@_K1@Z
	?_Change_array@?$vector@U?$dense_map_node@W4glslang_stage_t@@U?$pair@V?$vector@IV?$allocator@I@std@@@std@@PEAUVkShaderModule_T@@@std@@@internal@entt@@V?$allocator@U?$dense_map_node@W4glslang_stage_t@@U?$pair@V?$vector@IV?$allocator@I@std@@@std@@PEAUVkShaderModule_T@@@std@@@internal@entt@@@std@@@std@@AEAAXQEAU?$dense_map_node@W4glslang_stage_t@@U?$pair@V?$vector@IV?$allocator@I@std@@@std@@PEAUVkShaderModule_T@@@std@@@internal@entt@@_K1@Z
	?_Change_array@?$vector@USegment@tf@@V?$allocator@USegment@tf@@@std@@@std@@AEAAXQEAUSegment@tf@@_K1@Z
	?_Change_array@?$vector@V?$basic_string@DU?$char_traits@D@std@@V?$allocator@D@2@@std@@V?$allocator@V?$basic_string@DU?$char_traits@D@std@@V?$allocator@D@2@@std@@@2@@std@@AEAAXQEAV?$basic_string@DU?$char_traits@D@std@@V?$allocator@D@2@@2@_K1@Z
	?_Change_array@?$vector@V?$shared_ptr@VTFProfObserver@tf@@@std@@V?$allocator@V?$shared_ptr@VTFProfObserver@tf@@@std@@@2@@std@@AEAAXQEAV?$shared_ptr@VTFProfObserver@tf@@@2@_K1@Z
	?_Change_array@?$vector@V?$vector@V?$vector@USegment@tf@@V?$allocator@USegment@tf@@@std@@@std@@V?$allocator@V?$vector@USegment@tf@@V?$allocator@USegment@tf@@@std@@@std@@@2@@std@@V?$allocator@V?$vector@V?$vector@USegment@tf@@V?$allocator@USegment@tf@@@std@@@std@@V?$allocator@V?$vector@USegment@tf@@V?$allocator@USegment@tf@@@std@@@std@@@2@@std@@@2@@std@@AEAAXQEAV?$vector@V?$vector@USegment@tf@@V?$allocator@USegment@tf@@@std@@@std@@V?$allocator@V?$vector@USegment@tf@@V?$allocator@USegment@tf@@@std@@@std@@@2@@2@_K1@Z
	?_Clear_and_reserve_geometric@?$vector@PEAXV?$allocator@PEAX@std@@@std@@AEAAX_K@Z
	?_Clear_and_reserve_geometric@?$vector@U?$dense_map_node@V?$basic_string@DU?$char_traits@D@std@@V?$allocator@D@2@@std@@UPushConstantMemberInfo@Gfx@Component@LoFi@@@internal@entt@@V?$allocator@U?$dense_map_node@V?$basic_string@DU?$char_traits@D@std@@V?$allocator@D@2@@std@@UPushConstantMemberInfo@Gfx@Component@LoFi@@@internal@entt@@@std@@@std@@AEAAX_K@Z
	?_Clear_and_reserve_geometric@?$vector@UVkQueueFamilyProperties@@V?$allocator@UVkQueueFamilyProperties@@@std@@@std@@AEAAX_K@Z
	?_Clear_and_reserve_geometric@?$vector@_KV?$allocator@_K@std@@@std@@AEAAX_K@Z
	?_Copy@?$_Func_impl_no_alloc@V<lambda_1>@?0???R1?0??_ScheduleContinuationTask@_Task_impl_base@details@Concurrency@@QEAAXPEAU_ContinuationTaskHandleBase@45@@Z@QEBA?A?<auto>@@XZ@X$$V@std@@EEBAPEAV?$_Func_base@X$$V@2@PEAX@Z
	?_Copy@?$_Func_impl_no_alloc@V<lambda_1>@?0??_CancelAndRunContinuations@?$_Task_impl@E@details@Concurrency@@UEAA_N_N00AEBV?$shared_ptr@U_ExceptionHolder@details@Concurrency@@@std@@@Z@X$$V@std@@EEBAPEAV?$_Func_base@X$$V@2@PEAX@Z
	?_Copy@?$_Func_impl_no_alloc@V<lambda_1>@?0??_MakeVoidToUnitFunc@details@Concurrency@@YA?AV?$function@$$A6AEXZ@std@@AEBV?$function@$$A6AXXZ@6@@Z@E$$V@std@@EEBAPEAV?$_Func_base@E$$V@2@PEAX@Z
	?_Copy@?$_Func_impl_no_alloc@V<lambda_1>@?0??_ScheduleContinuationTask@_Task_impl_base@details@Concurrency@@QEAAXPEAU_ContinuationTaskHandleBase@45@@Z@X$$V@std@@EEBAPEAV?$_Func_base@X$$V@2@PEAX@Z
	?_Copy@?$_Func_impl_no_alloc@V<lambda_1>@?0??generate@?$ImmediateAtlasGenerator@M$03$1?mtsdfGenerator@msdf_atlas@@YAXAEBU?$BitmapRef@M$03@msdfgen@@AEBVGlyphGeometry@2@AEBUGeneratorAttributes@2@@ZV?$BitmapAtlasStorage@E$03@2@@msdf_atlas@@QEAAXPEBVGlyphGeometry@4@H@Z@_NHH@std@@EEBAPEAV?$_Func_base@_NHH@2@PEAX@Z
	?_CreateImpl@?$task@E@Concurrency@@QEAAXPEAV_CancellationTokenState@details@2@Uscheduler_ptr@2@@Z
	?_Decode_utf@std@@YA?AU?$_Decode_result@D@1@PEBD0AEA_U@Z
	?_Delete_this@?$_Func_impl_no_alloc@V<lambda_1>@?0???R1?0??_ScheduleContinuationTask@_Task_impl_base@details@Concurrency@@QEAAXPEAU_ContinuationTaskHandleBase@45@@Z@QEBA?A?<auto>@@XZ@X$$V@std@@EEAAX_N@Z
	?_Delete_this@?$_Func_impl_no_alloc@V<lambda_1>@?0??_CancelAndRunContinuations@?$_Task_impl@E@details@Concurrency@@UEAA_N_N00AEBV?$shared_ptr@U_ExceptionHolder@details@Concurrency@@@std@@@Z@X$$V@std@@EEAAX_N@Z
	?_Delete_this@?$_Func_impl_no_alloc@V<lambda_1>@?0??_MakeVoidToUnitFunc@details@Concurrency@@YA?AV?$function@$$A6AEXZ@std@@AEBV?$function@$$A6AXXZ@6@@Z@E$$V@std@@EEAAX_N@Z
	?_Delete_this@?$_Func_impl_no_alloc@V<lambda_1>@?0??_ScheduleContinuationTask@_Task_impl_base@details@Concurrency@@QEAAXPEAU_ContinuationTaskHandleBase@45@@Z@X$$V@std@@EEAAX_N@Z
	?_Delete_this@?$_Func_impl_no_alloc@V<lambda_1>@?0??generate@?$ImmediateAtlasGenerator@M$03$1?mtsdfGenerator@msdf_atlas@@YAXAEBU?$BitmapRef@M$03@msdfgen@@AEBVGlyphGeometry@2@AEBUGeneratorAttributes@2@@ZV?$BitmapAtlasStorage@E$03@2@@msdf_atlas@@QEAAXPEBVGlyphGeometry@4@H@Z@_NHH@std@@EEAAX_N@Z
	?_Delete_this@?$_Ref_count_obj2@U?$_Task_impl@E@details@Concurrency@@@std@@EEAAXXZ
	?_Delete_this@?$_Ref_count_obj2@U_ExceptionHolder@details@Concurrency@@@std@@EEAAXXZ
	?_Delete_this@?$_Ref_count_obj2@VTFProfObserver@tf@@@std@@EEAAXXZ
	?_Delete_this@?$_Ref_count_obj_alloc3@V?$basic_sigh_mixin@V?$basic_storage@UTagDataChanged@Gfx@Component@LoFi@@W4entity@entt@@V?$allocator@UTagDataChanged@Gfx@Component@LoFi@@@std@@X@entt@@V?$basic_registry@W4entity@entt@@V?$allocator@W4entity@entt@@@std@@@2@@entt@@V?$allocator@W4entity@entt@@@std@@@std@@EEAAXXZ
	?_Delete_this@?$_Ref_count_obj_alloc3@V?$basic_sigh_mixin@V?$basic_storage@UTagDataUpdateCompleted@Gfx@Component@LoFi@@W4entity@entt@@V?$allocator@UTagDataUpdateCompleted@Gfx@Component@LoFi@@@std@@X@entt@@V?$basic_registry@W4entity@entt@@V?$allocator@W4entity@entt@@@std@@@2@@entt@@V?$allocator@W4entity@entt@@@std@@@std@@EEAAXXZ
	?_Delete_this@?$_Ref_count_obj_alloc3@V?$basic_sigh_mixin@V?$basic_storage@VBuffer3F@Gfx@Component@LoFi@@W4entity@entt@@V?$allocator@VBuffer3F@Gfx@Component@LoFi@@@std@@X@entt@@V?$basic_registry@W4entity@entt@@V?$allocator@W4entity@entt@@@std@@@2@@entt@@V?$allocator@W4entity@entt@@@std@@@std@@EEAAXXZ
	?_Delete_this@?$_Ref_count_obj_alloc3@V?$basic_sigh_mixin@V?$basic_storage@VBuffer@Gfx@Component@LoFi@@W4entity@entt@@V?$allocator@VBuffer@Gfx@Component@LoFi@@@std@@X@entt@@V?$basic_registry@W4entity@entt@@V?$allocator@W4entity@entt@@@std@@@2@@entt@@V?$allocator@W4entity@entt@@@std@@@std@@EEAAXXZ
	?_Delete_this@?$_Ref_count_obj_alloc3@V?$basic_sigh_mixin@V?$basic_storage@VKernel@Gfx@Component@LoFi@@W4entity@entt@@V?$allocator@VKernel@Gfx@Component@LoFi@@@std@@X@entt@@V?$basic_registry@W4entity@entt@@V?$allocator@W4entity@entt@@@std@@@2@@entt@@V?$allocator@W4entity@entt@@@std@@@std@@EEAAXXZ
	?_Delete_this@?$_Ref_count_obj_alloc3@V?$basic_sigh_mixin@V?$basic_storage@VProgram@Gfx@Component@LoFi@@W4entity@entt@@V?$allocator@VProgram@Gfx@Component@LoFi@@@std@@X@entt@@V?$basic_registry@W4entity@entt@@V?$allocator@W4entity@entt@@@std@@@2@@entt@@V?$allocator@W4entity@entt@@@std@@@std@@EEAAXXZ
	?_Delete_this@?$_Ref_count_obj_alloc3@V?$basic_sigh_mixin@V?$basic_storage@VSwapchain@Gfx@Component@LoFi@@W4entity@entt@@V?$allocator@VSwapchain@Gfx@Component@LoFi@@@std@@X@entt@@V?$basic_registry@W4entity@entt@@V?$allocator@W4entity@entt@@@std@@@2@@entt@@V?$allocator@W4entity@entt@@@std@@@std@@EEAAXXZ
	?_Delete_this@?$_Ref_count_obj_alloc3@V?$basic_sigh_mixin@V?$basic_storage@VTexture@Gfx@Component@LoFi@@W4entity@entt@@V?$allocator@VTexture@Gfx@Component@LoFi@@@std@@X@entt@@V?$basic_registry@W4entity@entt@@V?$allocator@W4entity@entt@@@std@@@2@@entt@@V?$allocator@W4entity@entt@@@std@@@std@@EEAAXXZ
	?_Delete_this@?$_Ref_count_obj_alloc3@V?$basic_sigh_mixin@V?$basic_storage@VWindow@Gfx@Component@LoFi@@W4entity@entt@@V?$allocator@VWindow@Gfx@Component@LoFi@@@std@@X@entt@@V?$basic_registry@W4entity@entt@@V?$allocator@W4entity@entt@@@std@@@2@@entt@@V?$allocator@W4entity@entt@@@std@@@std@@EEAAXXZ
	?_DeregisterCallback@_CancellationTokenState@details@Concurrency@@QEAAXPEAV_CancellationTokenRegistration@23@@Z
	?_Destroy@?$_Ref_count_obj2@U?$_Task_impl@E@details@Concurrency@@@std@@EEAAXXZ
	?_Destroy@?$_Ref_count_obj2@U_ExceptionHolder@details@Concurrency@@@std@@EEAAXXZ
	?_Destroy@?$_Ref_count_obj2@VTFProfObserver@tf@@@std@@EEAAXXZ
	?_Destroy@?$_Ref_count_obj_alloc3@V?$basic_sigh_mixin@V?$basic_storage@UTagDataChanged@Gfx@Component@LoFi@@W4entity@entt@@V?$allocator@UTagDataChanged@Gfx@Component@LoFi@@@std@@X@entt@@V?$basic_registry@W4entity@entt@@V?$allocator@W4entity@entt@@@std@@@2@@entt@@V?$allocator@W4entity@entt@@@std@@@std@@EEAAXXZ
	?_Destroy@?$_Ref_count_obj_alloc3@V?$basic_sigh_mixin@V?$basic_storage@UTagDataUpdateCompleted@Gfx@Component@LoFi@@W4entity@entt@@V?$allocator@UTagDataUpdateCompleted@Gfx@Component@LoFi@@@std@@X@entt@@V?$basic_registry@W4entity@entt@@V?$allocator@W4entity@entt@@@std@@@2@@entt@@V?$allocator@W4entity@entt@@@std@@@std@@EEAAXXZ
	?_Destroy@?$_Ref_count_obj_alloc3@V?$basic_sigh_mixin@V?$basic_storage@VBuffer3F@Gfx@Component@LoFi@@W4entity@entt@@V?$allocator@VBuffer3F@Gfx@Component@LoFi@@@std@@X@entt@@V?$basic_registry@W4entity@entt@@V?$allocator@W4entity@entt@@@std@@@2@@entt@@V?$allocator@W4entity@entt@@@std@@@std@@EEAAXXZ
	?_Destroy@?$_Ref_count_obj_alloc3@V?$basic_sigh_mixin@V?$basic_storage@VBuffer@Gfx@Component@LoFi@@W4entity@entt@@V?$allocator@VBuffer@Gfx@Component@LoFi@@@std@@X@entt@@V?$basic_registry@W4entity@entt@@V?$allocator@W4entity@entt@@@std@@@2@@entt@@V?$allocator@W4entity@entt@@@std@@@std@@EEAAXXZ
	?_Destroy@?$_Ref_count_obj_alloc3@V?$basic_sigh_mixin@V?$basic_storage@VKernel@Gfx@Component@LoFi@@W4entity@entt@@V?$allocator@VKernel@Gfx@Component@LoFi@@@std@@X@entt@@V?$basic_registry@W4entity@entt@@V?$allocator@W4entity@entt@@@std@@@2@@entt@@V?$allocator@W4entity@entt@@@std@@@std@@EEAAXXZ
	?_Destroy@?$_Ref_count_obj_alloc3@V?$basic_sigh_mixin@V?$basic_storage@VProgram@Gfx@Component@LoFi@@W4entity@entt@@V?$allocator@VProgram@Gfx@Component@LoFi@@@std@@X@entt@@V?$basic_registry@W4entity@entt@@V?$allocator@W4entity@entt@@@std@@@2@@entt@@V?$allocator@W4entity@entt@@@std@@@std@@EEAAXXZ
	?_Destroy@?$_Ref_count_obj_alloc3@V?$basic_sigh_mixin@V?$basic_storage@VSwapchain@Gfx@Component@LoFi@@W4entity@entt@@V?$allocator@VSwapchain@Gfx@Component@LoFi@@@std@@X@entt@@V?$basic_registry@W4entity@entt@@V?$allocator@W4entity@entt@@@std@@@2@@entt@@V?$allocator@W4entity@entt@@@std@@@std@@EEAAXXZ
	?_Destroy@?$_Ref_count_obj_alloc3@V?$basic_sigh_mixin@V?$basic_storage@VTexture@Gfx@Component@LoFi@@W4entity@entt@@V?$allocator@VTexture@Gfx@Component@LoFi@@@std@@X@entt@@V?$basic_registry@W4entity@entt@@V?$allocator@W4entity@entt@@@std@@@2@@entt@@V?$allocator@W4entity@entt@@@std@@@std@@EEAAXXZ
	?_Destroy@?$_Ref_count_obj_alloc3@V?$basic_sigh_mixin@V?$basic_storage@VWindow@Gfx@Component@LoFi@@W4entity@entt@@V?$allocator@VWindow@Gfx@Component@LoFi@@@std@@X@entt@@V?$basic_registry@W4entity@entt@@V?$allocator@W4entity@entt@@@std@@@2@@entt@@V?$allocator@W4entity@entt@@@std@@@std@@EEAAXXZ
	?_Destroy@_RefCounter@details@Concurrency@@MEAAXXZ
	?_Do_call@?$_Func_impl_no_alloc@V<lambda_1>@?0???R1?0??_ScheduleContinuationTask@_Task_impl_base@details@Concurrency@@QEAAXPEAU_ContinuationTaskHandleBase@45@@Z@QEBA?A?<auto>@@XZ@X$$V@std@@EEAAXXZ
	?_Do_call@?$_Func_impl_no_alloc@V<lambda_1>@?0??_CancelAndRunContinuations@?$_Task_impl@E@details@Concurrency@@UEAA_N_N00AEBV?$shared_ptr@U_ExceptionHolder@details@Concurrency@@@std@@@Z@X$$V@std@@EEAAXXZ
	?_Do_call@?$_Func_impl_no_alloc@V<lambda_1>@?0??_MakeVoidToUnitFunc@details@Concurrency@@YA?AV?$function@$$A6AEXZ@std@@AEBV?$function@$$A6AXXZ@6@@Z@E$$V@std@@EEAAEXZ
	?_Do_call@?$_Func_impl_no_alloc@V<lambda_1>@?0??_ScheduleContinuationTask@_Task_impl_base@details@Concurrency@@QEAAXPEAU_ContinuationTaskHandleBase@45@@Z@X$$V@std@@EEAAXXZ
	?_Do_call@?$_Func_impl_no_alloc@V<lambda_1>@?0??generate@?$ImmediateAtlasGenerator@M$03$1?mtsdfGenerator@msdf_atlas@@YAXAEBU?$BitmapRef@M$03@msdfgen@@AEBVGlyphGeometry@2@AEBUGeneratorAttributes@2@@ZV?$BitmapAtlasStorage@E$03@2@@msdf_atlas@@QEAAXPEBVGlyphGeometry@4@H@Z@_NHH@std@@EEAA_N$$QEAH0@Z
	?_Do_notify@?$_Associated_state@H@std@@EEAAXPEAV?$unique_lock@Vmutex@std@@@2@_N@Z
	?_Endwrite@?$basic_filebuf@DU?$char_traits@D@std@@@std@@IEAA_NXZ
	?_Exec@?$_CancellationTokenCallback@V<lambda_1>@?0??_RegisterCancellation@_Task_impl_base@details@Concurrency@@QEAAXV?$weak_ptr@U_Task_impl_base@details@Concurrency@@@std@@@Z@@details@Concurrency@@MEAAXXZ
	?_FinalizeAndRunContinuations@?$_Task_impl@E@details@Concurrency@@QEAAXE@Z
	?_Forced_rehash@?$_Hash@V?$_Umap_traits@V?$basic_string@DU?$char_traits@D@std@@V?$allocator@D@2@@std@@V?$unordered_map@V?$basic_string@DU?$char_traits@D@std@@V?$allocator@D@2@@std@@_KU?$hash@V?$basic_string@DU?$char_traits@D@std@@V?$allocator@D@2@@std@@@2@U?$equal_to@V?$basic_string@DU?$char_traits@D@std@@V?$allocator@D@2@@std@@@2@V?$allocator@U?$pair@$$CBV?$basic_string@DU?$char_traits@D@std@@V?$allocator@D@2@@std@@_K@std@@@2@@2@V?$_Uhash_compare@V?$basic_string@DU?$char_traits@D@std@@V?$allocator@D@2@@std@@U?$hash@V?$basic_string@DU?$char_traits@D@std@@V?$allocator@D@2@@std@@@2@U?$equal_to@V?$basic_string@DU?$char_traits@D@std@@V?$allocator@D@2@@std@@@2@@2@V?$allocator@U?$pair@$$CBV?$basic_string@DU?$char_traits@D@std@@V?$allocator@D@2@@std@@V?$unordered_map@V?$basic_string@DU?$char_traits@D@std@@V?$allocator@D@2@@std@@_KU?$hash@V?$basic_string@DU?$char_traits@D@std@@V?$allocator@D@2@@std@@@2@U?$equal_to@V?$basic_string@DU?$char_traits@D@std@@V?$allocator@D@2@@std@@@2@V?$allocator@U?$pair@$$CBV?$basic_string@DU?$char_traits@D@std@@V?$allocator@D@2@@std@@_K@std@@@2@@2@@std@@@2@$0A@@std@@@std@@IEAAX_K@Z
	?_Forced_rehash@?$_Hash@V?$_Umap_traits@V?$basic_string@DU?$char_traits@D@std@@V?$allocator@D@2@@std@@W4VkFormat@@V?$_Uhash_compare@V?$basic_string@DU?$char_traits@D@std@@V?$allocator@D@2@@std@@U?$hash@V?$basic_string@DU?$char_traits@D@std@@V?$allocator@D@2@@std@@@2@U?$equal_to@V?$basic_string@DU?$char_traits@D@std@@V?$allocator@D@2@@std@@@2@@2@V?$allocator@U?$pair@$$CBV?$basic_string@DU?$char_traits@D@std@@V?$allocator@D@2@@std@@W4VkFormat@@@std@@@2@$0A@@std@@@std@@IEAAX_K@Z
	?_Forced_rehash@?$_Hash@V?$_Umap_traits@V?$basic_string@DU?$char_traits@D@std@@V?$allocator@D@2@@std@@_KV?$_Uhash_compare@V?$basic_string@DU?$char_traits@D@std@@V?$allocator@D@2@@std@@U?$hash@V?$basic_string@DU?$char_traits@D@std@@V?$allocator@D@2@@std@@@2@U?$equal_to@V?$basic_string@DU?$char_traits@D@std@@V?$allocator@D@2@@std@@@2@@2@V?$allocator@U?$pair@$$CBV?$basic_string@DU?$char_traits@D@std@@V?$allocator@D@2@@std@@_K@std@@@2@$0A@@std@@@std@@IEAAX_K@Z
	?_Forced_rehash@?$_Hash@V?$_Umap_traits@Vid@thread@std@@_KV?$_Uhash_compare@Vid@thread@std@@U?$hash@Vid@thread@std@@@3@U?$equal_to@Vid@thread@std@@@3@@3@V?$allocator@U?$pair@$$CBVid@thread@std@@_K@std@@@3@$0A@@std@@@std@@IEAAX_K@Z
	?_Forced_rehash@?$_Hash@V?$_Uset_traits@V?$shared_ptr@VObserverInterface@tf@@@std@@V?$_Uhash_compare@V?$shared_ptr@VObserverInterface@tf@@@std@@U?$hash@V?$shared_ptr@VObserverInterface@tf@@@std@@@2@U?$equal_to@V?$shared_ptr@VObserverInterface@tf@@@std@@@2@@2@V?$allocator@V?$shared_ptr@VObserverInterface@tf@@@std@@@2@$0A@@std@@@std@@IEAAX_K@Z
	?_Get@?$_Func_impl_no_alloc@V<lambda_1>@?0???R1?0??_ScheduleContinuationTask@_Task_impl_base@details@Concurrency@@QEAAXPEAU_ContinuationTaskHandleBase@45@@Z@QEBA?A?<auto>@@XZ@X$$V@std@@EEBAPEBXXZ
	?_Get@?$_Func_impl_no_alloc@V<lambda_1>@?0??_CancelAndRunContinuations@?$_Task_impl@E@details@Concurrency@@UEAA_N_N00AEBV?$shared_ptr@U_ExceptionHolder@details@Concurrency@@@std@@@Z@X$$V@std@@EEBAPEBXXZ
	?_Get@?$_Func_impl_no_alloc@V<lambda_1>@?0??_MakeVoidToUnitFunc@details@Concurrency@@YA?AV?$function@$$A6AEXZ@std@@AEBV?$function@$$A6AXXZ@6@@Z@E$$V@std@@EEBAPEBXXZ
	?_Get@?$_Func_impl_no_alloc@V<lambda_1>@?0??_ScheduleContinuationTask@_Task_impl_base@details@Concurrency@@QEAAXPEAU_ContinuationTaskHandleBase@45@@Z@X$$V@std@@EEBAPEBXXZ
	?_Get@?$_Func_impl_no_alloc@V<lambda_1>@?0??generate@?$ImmediateAtlasGenerator@M$03$1?mtsdfGenerator@msdf_atlas@@YAXAEBU?$BitmapRef@M$03@msdfgen@@AEBVGlyphGeometry@2@AEBUGeneratorAttributes@2@@ZV?$BitmapAtlasStorage@E$03@2@@msdf_atlas@@QEAAXPEBVGlyphGeometry@4@H@Z@_NHH@std@@EEBAPEBXXZ
	?_Get_deleter@_Ref_count_base@std@@UEBAPEAXAEBVtype_info@@@Z
	?_Get_value@?$_Associated_state@H@std@@UEAAAEAH_N@Z
	?_Get_value@?$_Task_async_state@X@std@@UEAAAEAH_N@Z
	?_Getcat@?$numpunct@D@std@@SA_KPEAPEBVfacet@locale@2@PEBV42@@Z
	?_Grow@?$_Fmt_iterator_buffer@V?$back_insert_iterator@V?$basic_string@DU?$char_traits@D@std@@V?$allocator@D@2@@std@@@std@@DU_Fmt_buffer_traits@2@@std@@EEAAX_K@Z
	?_Growmap@?$deque@V?$time_point@Usteady_clock@chrono@std@@V?$duration@_JU?$ratio@$00$0DLJKMKAA@@std@@@23@@chrono@std@@V?$allocator@V?$time_point@Usteady_clock@chrono@std@@V?$duration@_JU?$ratio@$00$0DLJKMKAA@@std@@@23@@chrono@std@@@3@@std@@AEAAX_K@Z
	?_Has_deferred_function@?$_Associated_state@H@std@@EEBA_NXZ
	?_Has_deferred_function@?$_Deferred_async_state@X@std@@EEBA_NXZ
	?_Init@?$numpunct@D@std@@IEAAXAEBV_Locinfo@2@_N@Z
	?_Insert_node@?$_Tree_val@U?$_Tree_simple_types@U?$pair@$$CBV?$basic_string@DU?$char_traits@D@std@@V?$allocator@D@2@@std@@W4glslang_stage_t@@@std@@@std@@@std@@QEAAPEAU?$_Tree_node@U?$pair@$$CBV?$basic_string@DU?$char_traits@D@std@@V?$allocator@D@2@@std@@W4glslang_stage_t@@@std@@PEAX@2@U?$_Tree_id@PEAU?$_Tree_node@U?$pair@$$CBV?$basic_string@DU?$char_traits@D@std@@V?$allocator@D@2@@std@@W4glslang_stage_t@@@std@@PEAX@std@@@2@QEAU32@@Z
	?_Invoke@_CancellationTokenRegistration@details@Concurrency@@AEAAXXZ
	?_Lock@?$basic_filebuf@DU?$char_traits@D@std@@@std@@UEAAXXZ
	?_Make@?$_Task_ptr@E@details@Concurrency@@SA?AV?$shared_ptr@U?$_Task_impl@E@details@Concurrency@@@std@@PEAV_CancellationTokenState@23@Uscheduler_ptr@3@@Z
	?_MakeVoidToUnitFunc@details@Concurrency@@YA?AV?$function@$$A6AEXZ@std@@AEBV?$function@$$A6AXXZ@4@@Z
	?_Move@?$_Func_impl_no_alloc@V<lambda_1>@?0???R1?0??_ScheduleContinuationTask@_Task_impl_base@details@Concurrency@@QEAAXPEAU_ContinuationTaskHandleBase@45@@Z@QEBA?A?<auto>@@XZ@X$$V@std@@EEAAPEAV?$_Func_base@X$$V@2@PEAX@Z
	?_Move@?$_Func_impl_no_alloc@V<lambda_1>@?0??_CancelAndRunContinuations@?$_Task_impl@E@details@Concurrency@@UEAA_N_N00AEBV?$shared_ptr@U_ExceptionHolder@details@Concurrency@@@std@@@Z@X$$V@std@@EEAAPEAV?$_Func_base@X$$V@2@PEAX@Z
	?_Move@?$_Func_impl_no_alloc@V<lambda_1>@?0??_MakeVoidToUnitFunc@details@Concurrency@@YA?AV?$function@$$A6AEXZ@std@@AEBV?$function@$$A6AXXZ@6@@Z@E$$V@std@@EEAAPEAV?$_Func_base@E$$V@2@PEAX@Z
	?_Move@?$_Func_impl_no_alloc@V<lambda_1>@?0??_ScheduleContinuationTask@_Task_impl_base@details@Concurrency@@QEAAXPEAU_ContinuationTaskHandleBase@45@@Z@X$$V@std@@EEAAPEAV?$_Func_base@X$$V@2@PEAX@Z
	?_Move@?$_Func_impl_no_alloc@V<lambda_1>@?0??generate@?$ImmediateAtlasGenerator@M$03$1?mtsdfGenerator@msdf_atlas@@YAXAEBU?$BitmapRef@M$03@msdfgen@@AEBVGlyphGeometry@2@AEBUGeneratorAttributes@2@@ZV?$BitmapAtlasStorage@E$03@2@@msdf_atlas@@QEAAXPEBVGlyphGeometry@4@H@Z@_NHH@std@@EEAAPEAV?$_Func_base@_NHH@2@PEAX@Z
	?_NoCallOnDefaultTask_ErrorImpl@_DefaultTaskHelper@details@Concurrency@@SAXXZ
	?_On_format_specs@?$_Format_handler@D@__p2286@std@@QEAAPEBD_KPEBD1@Z
	?_On_replacement_field@?$_Format_handler@D@__p2286@std@@QEAAX_KPEBD@Z
	?_RegisterCallback@_CancellationTokenState@details@Concurrency@@QEAAXPEAV_CancellationTokenRegistration@23@@Z
	?_RegisterCancellation@_Task_impl_base@details@Concurrency@@QEAAXV?$weak_ptr@U_Task_impl_base@details@Concurrency@@@std@@@Z
	?_RethrowUserException@_ExceptionHolder@details@Concurrency@@QEAAXXZ
	?_RunChoreBridge@_TaskProcHandle@details@Concurrency@@SAXPEAX@Z
	?_RunContinuation@_Task_impl_base@details@Concurrency@@QEAAXPEAU_ContinuationTaskHandleBase@23@@Z
	?_RunTask@_TaskCollectionBaseImpl@details@Concurrency@@SAXP6AXPEAX@Z0W4_TaskInliningMode@23@@Z
	?_Run_deferred_function@?$_Associated_state@H@std@@EEAAXAEAV?$unique_lock@Vmutex@std@@@2@@Z
	?_Run_deferred_function@?$_Deferred_async_state@X@std@@EEAAXAEAV?$unique_lock@Vmutex@std@@@2@@Z
	?_ScheduleContinuationTask@_Task_impl_base@details@Concurrency@@QEAAXPEAU_ContinuationTaskHandleBase@23@@Z
	?_ScheduleTask@_TaskCollectionBaseImpl@details@Concurrency@@QEAAXPEAU_TaskProcHandle@23@W4_TaskInliningMode@23@@Z
	?_ScheduleTask@_Task_impl_base@details@Concurrency@@QEAAXPEAU_TaskProcHandle@23@W4_TaskInliningMode@23@@Z
	?_Set_exception@?$_Associated_state@H@std@@QEAAXVexception_ptr@2@_N@Z
	?_Set_value@?$_Associated_state@H@std@@QEAAX$$QEAH_N@Z
	?_Swap@?$_Func_class@XPEAUVkCommandBuffer_T@@@std@@IEAAXAEAV12@@Z
	?_Target_type@?$_Func_impl_no_alloc@V<lambda_1>@?0???R1?0??_ScheduleContinuationTask@_Task_impl_base@details@Concurrency@@QEAAXPEAU_ContinuationTaskHandleBase@45@@Z@QEBA?A?<auto>@@XZ@X$$V@std@@EEBAAEBVtype_info@@XZ
	?_Target_type@?$_Func_impl_no_alloc@V<lambda_1>@?0??_CancelAndRunContinuations@?$_Task_impl@E@details@Concurrency@@UEAA_N_N00AEBV?$shared_ptr@U_ExceptionHolder@details@Concurrency@@@std@@@Z@X$$V@std@@EEBAAEBVtype_info@@XZ
	?_Target_type@?$_Func_impl_no_alloc@V<lambda_1>@?0??_MakeVoidToUnitFunc@details@Concurrency@@YA?AV?$function@$$A6AEXZ@std@@AEBV?$function@$$A6AXXZ@6@@Z@E$$V@std@@EEBAAEBVtype_info@@XZ
	?_Target_type@?$_Func_impl_no_alloc@V<lambda_1>@?0??_ScheduleContinuationTask@_Task_impl_base@details@Concurrency@@QEAAXPEAU_ContinuationTaskHandleBase@45@@Z@X$$V@std@@EEBAAEBVtype_info@@XZ
	?_Target_type@?$_Func_impl_no_alloc@V<lambda_1>@?0??generate@?$ImmediateAtlasGenerator@M$03$1?mtsdfGenerator@msdf_atlas@@YAXAEBU?$BitmapRef@M$03@msdfgen@@AEBVGlyphGeometry@2@AEBUGeneratorAttributes@2@@ZV?$BitmapAtlasStorage@E$03@2@@msdf_atlas@@QEAAXPEBVGlyphGeometry@4@H@Z@_NHH@std@@EEBAAEBVtype_info@@XZ
	?_Throw_bad_array_new_length@std@@YAXXZ
	?_Throw_bad_cast@std@@YAXXZ
	?_Throw_bad_optional_access@std@@YAXXZ
	?_Throw_format_error@std@@YAXQEBD@Z
	?_Throw_future_error2@std@@YAXW4future_errc@1@@Z
	?_Throw_system_error@std@@YAXW4errc@1@@Z
	?_Throw_tree_length_error@std@@YAXXZ
	?_Tidy@?$basic_stringbuf@DU?$char_traits@D@std@@V?$allocator@D@2@@std@@IEAAXXZ
	?_Tidy@?$deque@V?$shared_ptr@VTopology@tf@@@std@@V?$allocator@V?$shared_ptr@VTopology@tf@@@std@@@2@@std@@AEAAXXZ
	?_Tidy@?$list@U?$pair@$$CBIV?$basic_string@DU?$char_traits@D@std@@V?$allocator@D@2@@std@@@std@@V?$allocator@U?$pair@$$CBIV?$basic_string@DU?$char_traits@D@std@@V?$allocator@D@2@@std@@@std@@@2@@std@@AEAAXXZ
	?_Tidy@?$list@U?$pair@$$CBV?$basic_string@DU?$char_traits@D@std@@V?$allocator@D@2@@std@@W4VkFormat@@@std@@V?$allocator@U?$pair@$$CBV?$basic_string@DU?$char_traits@D@std@@V?$allocator@D@2@@std@@W4VkFormat@@@std@@@2@@std@@AEAAXXZ
	?_Tidy@?$list@U?$pair@$$CBV?$basic_string@DU?$char_traits@D@std@@V?$allocator@D@2@@std@@_K@std@@V?$allocator@U?$pair@$$CBV?$basic_string@DU?$char_traits@D@std@@V?$allocator@D@2@@std@@_K@std@@@2@@std@@AEAAXXZ
	?_Tidy@?$list@UMessage@LoFi@@V?$allocator@UMessage@LoFi@@@std@@@std@@AEAAXXZ
	?_Tidy@?$vector@U?$dense_map_node@V?$basic_string@DU?$char_traits@D@std@@V?$allocator@D@2@@std@@UPushConstantMemberInfo@Gfx@Component@LoFi@@@internal@entt@@V?$allocator@U?$dense_map_node@V?$basic_string@DU?$char_traits@D@std@@V?$allocator@D@2@@std@@UPushConstantMemberInfo@Gfx@Component@LoFi@@@internal@entt@@@std@@@std@@AEAAXXZ
	?_Tidy@?$vector@U?$dense_map_node@W4glslang_stage_t@@U?$pair@V?$vector@IV?$allocator@I@std@@@std@@PEAUVkShaderModule_T@@@std@@@internal@entt@@V?$allocator@U?$dense_map_node@W4glslang_stage_t@@U?$pair@V?$vector@IV?$allocator@I@std@@@std@@PEAUVkShaderModule_T@@@std@@@internal@entt@@@std@@@std@@AEAAXXZ
	?_Tidy@?$vector@USegment@tf@@V?$allocator@USegment@tf@@@std@@@std@@AEAAXXZ
	?_Tidy@?$vector@V?$basic_string@DU?$char_traits@D@std@@V?$allocator@D@2@@std@@V?$allocator@V?$basic_string@DU?$char_traits@D@std@@V?$allocator@D@2@@std@@@2@@std@@AEAAXXZ
	?_Tidy@?$vector@V?$vector@V?$vector@USegment@tf@@V?$allocator@USegment@tf@@@std@@@std@@V?$allocator@V?$vector@USegment@tf@@V?$allocator@USegment@tf@@@std@@@std@@@2@@std@@V?$allocator@V?$vector@V?$vector@USegment@tf@@V?$allocator@USegment@tf@@@std@@@std@@V?$allocator@V?$vector@USegment@tf@@V?$allocator@USegment@tf@@@std@@@std@@@2@@std@@@2@@std@@AEAAXXZ
	?_Tidy@?$vector@VContour@msdfgen@@V?$allocator@VContour@msdfgen@@@std@@@std@@AEAAXXZ
	?_Unlock@?$basic_filebuf@DU?$char_traits@D@std@@@std@@UEAAXXZ
	?_Wait@?$_Associated_state@H@std@@UEAAXXZ
	?_Wait@?$_Task_async_state@X@std@@UEAAXXZ
	?_Wait@_Task_impl_base@details@Concurrency@@QEAA?AW4task_group_status@3@XZ
	?_Xlen@?$deque@V?$time_point@Usteady_clock@chrono@std@@V?$duration@_JU?$ratio@$00$0DLJKMKAA@@std@@@23@@chrono@std@@V?$allocator@V?$time_point@Usteady_clock@chrono@std@@V?$duration@_JU?$ratio@$00$0DLJKMKAA@@std@@@23@@chrono@std@@@3@@std@@CAXXZ
	?_Xlen_string@std@@YAXXZ
	?_Xlength@?$vector@EV?$allocator@E@std@@@std@@CAXXZ
	?_Xlength@?$vector@IV?$allocator@I@std@@@std@@CAXXZ
	?_Xlength@?$vector@MV?$allocator@M@std@@@std@@CAXXZ
	?_Xlength@?$vector@PEAUVkCommandBuffer_T@@V?$allocator@PEAUVkCommandBuffer_T@@@std@@@std@@CAXXZ
	?_Xlength@?$vector@PEAUVkSemaphore_T@@V?$allocator@PEAUVkSemaphore_T@@@std@@@std@@CAXXZ
	?_Xlength@?$vector@PEAUVkSwapchainKHR_T@@V?$allocator@PEAUVkSwapchainKHR_T@@@std@@@std@@CAXXZ
	?_Xlength@?$vector@PEAVBuffer3F@Gfx@Component@LoFi@@V?$allocator@PEAVBuffer3F@Gfx@Component@LoFi@@@std@@@std@@CAXXZ
	?_Xlength@?$vector@PEAVBuffer@Gfx@Component@LoFi@@V?$allocator@PEAVBuffer@Gfx@Component@LoFi@@@std@@@std@@CAXXZ
	?_Xlength@?$vector@PEAVKernel@Gfx@Component@LoFi@@V?$allocator@PEAVKernel@Gfx@Component@LoFi@@@std@@@std@@CAXXZ
	?_Xlength@?$vector@PEAVNode@tf@@V?$allocator@PEAVNode@tf@@@std@@@std@@CAXXZ
	?_Xlength@?$vector@PEAVProgram@Gfx@Component@LoFi@@V?$allocator@PEAVProgram@Gfx@Component@LoFi@@@std@@@std@@CAXXZ
	?_Xlength@?$vector@PEAVSwapchain@Gfx@Component@LoFi@@V?$allocator@PEAVSwapchain@Gfx@Component@LoFi@@@std@@@std@@CAXXZ
	?_Xlength@?$vector@PEAVTexture@Gfx@Component@LoFi@@V?$allocator@PEAVTexture@Gfx@Component@LoFi@@@std@@@std@@CAXXZ
	?_Xlength@?$vector@PEAVWindow@Gfx@Component@LoFi@@V?$allocator@PEAVWindow@Gfx@Component@LoFi@@@std@@@std@@CAXXZ
	?_Xlength@?$vector@PEAW4entity@entt@@V?$allocator@PEAW4entity@entt@@@std@@@std@@CAXXZ
	?_Xlength@?$vector@PEAXV?$allocator@PEAX@std@@@std@@CAXXZ
	?_Xlength@?$vector@U?$dense_map_node@IV?$shared_ptr@V?$basic_sparse_set@W4entity@entt@@V?$allocator@W4entity@entt@@@std@@@entt@@@std@@@internal@entt@@V?$allocator@U?$dense_map_node@IV?$shared_ptr@V?$basic_sparse_set@W4entity@entt@@V?$allocator@W4entity@entt@@@std@@@entt@@@std@@@internal@entt@@@std@@@std@@CAXXZ
	?_Xlength@?$vector@U?$dense_map_node@V?$basic_string@DU?$char_traits@D@std@@V?$allocator@D@2@@std@@UPushConstantMemberInfo@Gfx@Component@LoFi@@@internal@entt@@V?$allocator@U?$dense_map_node@V?$basic_string@DU?$char_traits@D@std@@V?$allocator@D@2@@std@@UPushConstantMemberInfo@Gfx@Component@LoFi@@@internal@entt@@@std@@@std@@CAXXZ
	?_Xlength@?$vector@UGeneratorAttributes@msdf_atlas@@V?$allocator@UGeneratorAttributes@msdf_atlas@@@std@@@std@@CAXXZ
	?_Xlength@?$vector@UTimeline@tf@@V?$allocator@UTimeline@tf@@@std@@@std@@CAXXZ
	?_Xlength@?$vector@UVkQueueFamilyProperties@@V?$allocator@UVkQueueFamilyProperties@@@std@@@std@@CAXXZ
	?_Xlength@?$vector@UWaiter@NonblockingNotifierV2@tf@@V?$allocator@UWaiter@NonblockingNotifierV2@tf@@@std@@@std@@CAXXZ
	?_Xlength@?$vector@V?$stack@V?$time_point@Usteady_clock@chrono@std@@V?$duration@_JU?$ratio@$00$0DLJKMKAA@@std@@@23@@chrono@std@@V?$deque@V?$time_point@Usteady_clock@chrono@std@@V?$duration@_JU?$ratio@$00$0DLJKMKAA@@std@@@23@@chrono@std@@V?$allocator@V?$time_point@Usteady_clock@chrono@std@@V?$duration@_JU?$ratio@$00$0DLJKMKAA@@std@@@23@@chrono@std@@@3@@3@@std@@V?$allocator@V?$stack@V?$time_point@Usteady_clock@chrono@std@@V?$duration@_JU?$ratio@$00$0DLJKMKAA@@std@@@23@@chrono@std@@V?$deque@V?$time_point@Usteady_clock@chrono@std@@V?$duration@_JU?$ratio@$00$0DLJKMKAA@@std@@@23@@chrono@std@@V?$allocator@V?$time_point@Usteady_clock@chrono@std@@V?$duration@_JU?$ratio@$00$0DLJKMKAA@@std@@@23@@chrono@std@@@3@@3@@std@@@2@@std@@CAXXZ
	?_Xlength@?$vector@V?$vector@USegment@tf@@V?$allocator@USegment@tf@@@std@@@std@@V?$allocator@V?$vector@USegment@tf@@V?$allocator@USegment@tf@@@std@@@std@@@2@@std@@CAXXZ
	?_Xlength@?$vector@V?$vector@V?$vector@USegment@tf@@V?$allocator@USegment@tf@@@std@@@std@@V?$allocator@V?$vector@USegment@tf@@V?$allocator@USegment@tf@@@std@@@std@@@2@@std@@V?$allocator@V?$vector@V?$vector@USegment@tf@@V?$allocator@USegment@tf@@@std@@@std@@V?$allocator@V?$vector@USegment@tf@@V?$allocator@USegment@tf@@@std@@@std@@@2@@std@@@2@@std@@CAXXZ
	?_Xlength@?$vector@VWorker@tf@@V?$allocator@VWorker@tf@@@std@@@std@@CAXXZ
	?_Xlength@?$vector@Vthread@std@@V?$allocator@Vthread@std@@@2@@std@@CAXXZ
	?_Xlength@?$vector@W4entity@entt@@V?$allocator@W4entity@entt@@@std@@@std@@CAXXZ
	?_Xlength@?$vector@_KV?$allocator@_K@std@@@std@@CAXXZ
	?_Xran@?$_String_val@U?$_Simple_types@D@std@@@std@@SAXXZ
	?_Xran@?$array@W4entity@entt@@$02@std@@CAXXZ
	?_Xrange@?$vector@EV?$allocator@E@std@@@std@@CAXXZ
	?_Xrange@?$vector@PEAUVkImageView_T@@V?$allocator@PEAUVkImageView_T@@@std@@@std@@CAXXZ
	?_Xrange@?$vector@UVkImageViewCreateInfo@@V?$allocator@UVkImageViewCreateInfo@@@std@@@std@@CAXXZ
	?_Xrange@?$vector@V?$unique_ptr@VTexture@Gfx@Component@LoFi@@U?$default_delete@VTexture@Gfx@Component@LoFi@@@std@@@std@@V?$allocator@V?$unique_ptr@VTexture@Gfx@Component@LoFi@@U?$default_delete@VTexture@Gfx@Component@LoFi@@@std@@@std@@@2@@std@@CAXXZ
	?__d2d@std@@YA?AU__floating_decimal_64@1@_KI@Z
	?__d2exp_buffered_n@std@@YA?AUto_chars_result@1@PEADQEADNI@Z
	?__f2d@std@@YA?AU__floating_decimal_32@1@II@Z
	?_carry_out_promise@Topology@tf@@AEAAXXZ
	?_clear_detached@Graph@tf@@AEAAXXZ
	?_invoke@Executor@tf@@AEAAXAEAVWorker@2@PEAVNode@2@@Z
	?_invoke_async_task@Executor@tf@@AEAAXAEAVWorker@2@PEAVNode@2@@Z
	?_invoke_condition_task@Executor@tf@@AEAAXAEAVWorker@2@PEAVNode@2@AEAV?$SmallVector@H$01@2@@Z
	?_invoke_dependent_async_task@Executor@tf@@AEAAXAEAVWorker@2@PEAVNode@2@@Z
	?_invoke_multi_condition_task@Executor@tf@@AEAAXAEAVWorker@2@PEAVNode@2@AEAV?$SmallVector@H$01@2@@Z
	?_invoke_static_task@Executor@tf@@AEAAXAEAVWorker@2@PEAVNode@2@@Z
	?_invoke_subflow_task@Executor@tf@@AEAAXAEAVWorker@2@PEAVNode@2@@Z
	?_manage@TFProfManager@tf@@AEAAXV?$shared_ptr@VTFProfObserver@tf@@@std@@@Z
	?_process_exception@Executor@tf@@AEAAXAEAVWorker@2@PEAVNode@2@@Z
	?_schedule@Executor@tf@@AEAAXAEAVWorker@2@AEBV?$SmallVector@PEAVNode@tf@@$01@2@@Z
	?_schedule@Executor@tf@@AEAAXAEAVWorker@2@PEAVNode@2@@Z
	?_set_up_graph@Executor@tf@@AEAAXAEAVGraph@2@PEAVNode@2@PEAVTopology@2@HAEAV?$SmallVector@PEAVNode@tf@@$01@2@@Z
	?_spawn@Executor@tf@@AEAAX_K@Z
	?_tear_down_topology@Executor@tf@@AEAAXAEAVWorker@2@PEAVTopology@2@@Z
	?_wait_for_task@Executor@tf@@AEAA_NAEAVWorker@2@AEAPEAVNode@2@@Z
	?append@?$StringStream@$0BAAA@$0BAAA@@spirv_cross@@AEAAXPEBD_K@Z
	?assure_at_least@?$basic_storage@VBuffer3F@Gfx@Component@LoFi@@W4entity@entt@@V?$allocator@VBuffer3F@Gfx@Component@LoFi@@@std@@X@entt@@AEAA?A?<auto>@@_K@Z
	?assure_at_least@?$basic_storage@VBuffer@Gfx@Component@LoFi@@W4entity@entt@@V?$allocator@VBuffer@Gfx@Component@LoFi@@@std@@X@entt@@AEAA?A?<auto>@@_K@Z
	?assure_at_least@?$basic_storage@VKernel@Gfx@Component@LoFi@@W4entity@entt@@V?$allocator@VKernel@Gfx@Component@LoFi@@@std@@X@entt@@AEAA?A?<auto>@@_K@Z
	?assure_at_least@?$basic_storage@VProgram@Gfx@Component@LoFi@@W4entity@entt@@V?$allocator@VProgram@Gfx@Component@LoFi@@@std@@X@entt@@AEAA?A?<auto>@@_K@Z
	?assure_at_least@?$basic_storage@VSwapchain@Gfx@Component@LoFi@@W4entity@entt@@V?$allocator@VSwapchain@Gfx@Component@LoFi@@@std@@X@entt@@AEAA?A?<auto>@@_K@Z
	?assure_at_least@?$basic_storage@VTexture@Gfx@Component@LoFi@@W4entity@entt@@V?$allocator@VTexture@Gfx@Component@LoFi@@@std@@X@entt@@AEAA?A?<auto>@@_K@Z
	?assure_at_least@?$basic_storage@VWindow@Gfx@Component@LoFi@@W4entity@entt@@V?$allocator@VWindow@Gfx@Component@LoFi@@@std@@X@entt@@AEAA?A?<auto>@@_K@Z
	?bind@?$basic_sigh_mixin@V?$basic_storage@UTagDataChanged@Gfx@Component@LoFi@@W4entity@entt@@V?$allocator@UTagDataChanged@Gfx@Component@LoFi@@@std@@X@entt@@V?$basic_registry@W4entity@entt@@V?$allocator@W4entity@entt@@@std@@@2@@entt@@UEAAXV?$basic_any@$0BA@$07@2@@Z
	?bind@?$basic_sigh_mixin@V?$basic_storage@UTagDataUpdateCompleted@Gfx@Component@LoFi@@W4entity@entt@@V?$allocator@UTagDataUpdateCompleted@Gfx@Component@LoFi@@@std@@X@entt@@V?$basic_registry@W4entity@entt@@V?$allocator@W4entity@entt@@@std@@@2@@entt@@UEAAXV?$basic_any@$0BA@$07@2@@Z
	?bind@?$basic_sigh_mixin@V?$basic_storage@VBuffer3F@Gfx@Component@LoFi@@W4entity@entt@@V?$allocator@VBuffer3F@Gfx@Component@LoFi@@@std@@X@entt@@V?$basic_registry@W4entity@entt@@V?$allocator@W4entity@entt@@@std@@@2@@entt@@UEAAXV?$basic_any@$0BA@$07@2@@Z
	?bind@?$basic_sigh_mixin@V?$basic_storage@VBuffer@Gfx@Component@LoFi@@W4entity@entt@@V?$allocator@VBuffer@Gfx@Component@LoFi@@@std@@X@entt@@V?$basic_registry@W4entity@entt@@V?$allocator@W4entity@entt@@@std@@@2@@entt@@UEAAXV?$basic_any@$0BA@$07@2@@Z
	?bind@?$basic_sigh_mixin@V?$basic_storage@VKernel@Gfx@Component@LoFi@@W4entity@entt@@V?$allocator@VKernel@Gfx@Component@LoFi@@@std@@X@entt@@V?$basic_registry@W4entity@entt@@V?$allocator@W4entity@entt@@@std@@@2@@entt@@UEAAXV?$basic_any@$0BA@$07@2@@Z
	?bind@?$basic_sigh_mixin@V?$basic_storage@VProgram@Gfx@Component@LoFi@@W4entity@entt@@V?$allocator@VProgram@Gfx@Component@LoFi@@@std@@X@entt@@V?$basic_registry@W4entity@entt@@V?$allocator@W4entity@entt@@@std@@@2@@entt@@UEAAXV?$basic_any@$0BA@$07@2@@Z
	?bind@?$basic_sigh_mixin@V?$basic_storage@VSwapchain@Gfx@Component@LoFi@@W4entity@entt@@V?$allocator@VSwapchain@Gfx@Component@LoFi@@@std@@X@entt@@V?$basic_registry@W4entity@entt@@V?$allocator@W4entity@entt@@@std@@@2@@entt@@UEAAXV?$basic_any@$0BA@$07@2@@Z
	?bind@?$basic_sigh_mixin@V?$basic_storage@VTexture@Gfx@Component@LoFi@@W4entity@entt@@V?$allocator@VTexture@Gfx@Component@LoFi@@@std@@X@entt@@V?$basic_registry@W4entity@entt@@V?$allocator@W4entity@entt@@@std@@@2@@entt@@UEAAXV?$basic_any@$0BA@$07@2@@Z
	?bind@?$basic_sigh_mixin@V?$basic_storage@VWindow@Gfx@Component@LoFi@@W4entity@entt@@V?$allocator@VWindow@Gfx@Component@LoFi@@@std@@X@entt@@V?$basic_registry@W4entity@entt@@V?$allocator@W4entity@entt@@@std@@@2@@entt@@UEAAXV?$basic_any@$0BA@$07@2@@Z
	?bind@?$basic_sigh_mixin@V?$basic_storage@W4entity@entt@@W412@V?$allocator@W4entity@entt@@@std@@X@entt@@V?$basic_registry@W4entity@entt@@V?$allocator@W4entity@entt@@@std@@@2@@entt@@UEAAXV?$basic_any@$0BA@$07@2@@Z
	?bind@?$basic_sparse_set@W4entity@entt@@V?$allocator@W4entity@entt@@@std@@@entt@@UEAAXV?$basic_any@$0BA@$07@2@@Z
	?capacity@?$basic_sparse_set@W4entity@entt@@V?$allocator@W4entity@entt@@@std@@@entt@@UEBA_KXZ
	?capacity@?$basic_storage@VBuffer3F@Gfx@Component@LoFi@@W4entity@entt@@V?$allocator@VBuffer3F@Gfx@Component@LoFi@@@std@@X@entt@@UEBA_KXZ
	?capacity@?$basic_storage@VBuffer@Gfx@Component@LoFi@@W4entity@entt@@V?$allocator@VBuffer@Gfx@Component@LoFi@@@std@@X@entt@@UEBA_KXZ
	?capacity@?$basic_storage@VKernel@Gfx@Component@LoFi@@W4entity@entt@@V?$allocator@VKernel@Gfx@Component@LoFi@@@std@@X@entt@@UEBA_KXZ
	?capacity@?$basic_storage@VProgram@Gfx@Component@LoFi@@W4entity@entt@@V?$allocator@VProgram@Gfx@Component@LoFi@@@std@@X@entt@@UEBA_KXZ
	?capacity@?$basic_storage@VSwapchain@Gfx@Component@LoFi@@W4entity@entt@@V?$allocator@VSwapchain@Gfx@Component@LoFi@@@std@@X@entt@@UEBA_KXZ
	?capacity@?$basic_storage@VTexture@Gfx@Component@LoFi@@W4entity@entt@@V?$allocator@VTexture@Gfx@Component@LoFi@@@std@@X@entt@@UEBA_KXZ
	?capacity@?$basic_storage@VWindow@Gfx@Component@LoFi@@W4entity@entt@@V?$allocator@VWindow@Gfx@Component@LoFi@@@std@@X@entt@@UEBA_KXZ
	?clear@?$dense_map@W4glslang_stage_t@@U?$pair@V?$vector@IV?$allocator@I@std@@@std@@PEAUVkShaderModule_T@@@std@@U?$hash@W4glslang_stage_t@@@3@U?$equal_to@W4glslang_stage_t@@@3@V?$allocator@U?$pair@$$CBW4glslang_stage_t@@U?$pair@V?$vector@IV?$allocator@I@std@@@std@@PEAUVkShaderModule_T@@@std@@@std@@@3@@entt@@QEAAXXZ
	?deallocate@?$allocator@U?$dense_map_node@V?$basic_string@DU?$char_traits@D@std@@V?$allocator@D@2@@std@@UPushConstantMemberInfo@Gfx@Component@LoFi@@@internal@entt@@@std@@QEAAXQEAU?$dense_map_node@V?$basic_string@DU?$char_traits@D@std@@V?$allocator@D@2@@std@@UPushConstantMemberInfo@Gfx@Component@LoFi@@@internal@entt@@_K@Z
	?deallocate@?$allocator@USegment@tf@@@std@@QEAAXQEAUSegment@tf@@_K@Z
	?deallocate@?$allocator@V?$basic_string@DU?$char_traits@D@std@@V?$allocator@D@2@@std@@@std@@QEAAXQEAV?$basic_string@DU?$char_traits@D@std@@V?$allocator@D@2@@2@_K@Z
	?deallocate@?$allocator@V?$stack@V?$time_point@Usteady_clock@chrono@std@@V?$duration@_JU?$ratio@$00$0DLJKMKAA@@std@@@23@@chrono@std@@V?$deque@V?$time_point@Usteady_clock@chrono@std@@V?$duration@_JU?$ratio@$00$0DLJKMKAA@@std@@@23@@chrono@std@@V?$allocator@V?$time_point@Usteady_clock@chrono@std@@V?$duration@_JU?$ratio@$00$0DLJKMKAA@@std@@@23@@chrono@std@@@3@@3@@std@@@std@@QEAAXQEAV?$stack@V?$time_point@Usteady_clock@chrono@std@@V?$duration@_JU?$ratio@$00$0DLJKMKAA@@std@@@23@@chrono@std@@V?$deque@V?$time_point@Usteady_clock@chrono@std@@V?$duration@_JU?$ratio@$00$0DLJKMKAA@@std@@@23@@chrono@std@@V?$allocator@V?$time_point@Usteady_clock@chrono@std@@V?$duration@_JU?$ratio@$00$0DLJKMKAA@@std@@@23@@chrono@std@@@3@@3@@2@_K@Z
	?default_error_condition@error_category@std@@UEBA?AVerror_condition@2@H@Z
	?destroy@?$basic_registry@W4entity@entt@@V?$allocator@W4entity@entt@@@std@@@entt@@QEAAGW4entity@2@@Z
	?do_decimal_point@?$numpunct@D@std@@MEBADXZ
	?do_falsename@?$numpunct@D@std@@MEBA?AV?$basic_string@DU?$char_traits@D@std@@V?$allocator@D@2@@2@XZ
	?do_grouping@?$numpunct@D@std@@MEBA?AV?$basic_string@DU?$char_traits@D@std@@V?$allocator@D@2@@2@XZ
	?do_thousands_sep@?$numpunct@D@std@@MEBADXZ
	?do_truename@?$numpunct@D@std@@MEBA?AV?$basic_string@DU?$char_traits@D@std@@V?$allocator@D@2@@2@XZ
	?dump@TFProfObserver@tf@@QEBAXAEAV?$basic_ostream@DU?$char_traits@D@std@@@std@@@Z
	?dump_tsum@Summary@TFProfObserver@tf@@QEBAXAEAV?$basic_ostream@DU?$char_traits@D@std@@@std@@@Z
	?dump_wsum@Summary@TFProfObserver@tf@@QEBAXAEAV?$basic_ostream@DU?$char_traits@D@std@@@std@@@Z
	?emplace@?$basic_sigh_mixin@V?$basic_storage@W4entity@entt@@W412@V?$allocator@W4entity@entt@@@std@@X@entt@@V?$basic_registry@W4entity@entt@@V?$allocator@W4entity@entt@@@std@@@2@@entt@@QEAA?A?<auto>@@XZ
	?emplace@?$basic_storage@W4entity@entt@@W412@V?$allocator@W4entity@entt@@@std@@X@entt@@QEAA?AW4entity@2@W432@@Z
	?equivalent@error_category@std@@UEBA_NAEBVerror_code@2@H@Z
	?equivalent@error_category@std@@UEBA_NHAEBVerror_condition@2@@Z
	?erase@?$dense_map@IW4entity@entt@@U?$hash@I@std@@U?$equal_to@I@4@V?$allocator@U?$pair@$$CBIW4entity@entt@@@std@@@4@@entt@@QEAA_KAEBI@Z
	?generate@?$ImmediateAtlasGenerator@M$03$1?mtsdfGenerator@msdf_atlas@@YAXAEBU?$BitmapRef@M$03@msdfgen@@AEBVGlyphGeometry@2@AEBUGeneratorAttributes@2@@ZV?$BitmapAtlasStorage@E$03@2@@msdf_atlas@@QEAAXPEBVGlyphGeometry@2@H@Z
	?get_at@?$basic_sparse_set@W4entity@entt@@V?$allocator@W4entity@entt@@@std@@@entt@@EEBAPEBX_K@Z
	?get_at@?$basic_storage@VBuffer3F@Gfx@Component@LoFi@@W4entity@entt@@V?$allocator@VBuffer3F@Gfx@Component@LoFi@@@std@@X@entt@@EEBAPEBX_K@Z
	?get_at@?$basic_storage@VBuffer@Gfx@Component@LoFi@@W4entity@entt@@V?$allocator@VBuffer@Gfx@Component@LoFi@@@std@@X@entt@@EEBAPEBX_K@Z
	?get_at@?$basic_storage@VKernel@Gfx@Component@LoFi@@W4entity@entt@@V?$allocator@VKernel@Gfx@Component@LoFi@@@std@@X@entt@@EEBAPEBX_K@Z
	?get_at@?$basic_storage@VProgram@Gfx@Component@LoFi@@W4entity@entt@@V?$allocator@VProgram@Gfx@Component@LoFi@@@std@@X@entt@@EEBAPEBX_K@Z
	?get_at@?$basic_storage@VSwapchain@Gfx@Component@LoFi@@W4entity@entt@@V?$allocator@VSwapchain@Gfx@Component@LoFi@@@std@@X@entt@@EEBAPEBX_K@Z
	?get_at@?$basic_storage@VTexture@Gfx@Component@LoFi@@W4entity@entt@@V?$allocator@VTexture@Gfx@Component@LoFi@@@std@@X@entt@@EEBAPEBX_K@Z
	?get_at@?$basic_storage@VWindow@Gfx@Component@LoFi@@W4entity@entt@@V?$allocator@VWindow@Gfx@Component@LoFi@@@std@@X@entt@@EEBAPEBX_K@Z
	?get_env@tf@@YA?AV?$basic_string@DU?$char_traits@D@std@@V?$allocator@D@2@@std@@AEBV23@@Z
	?get_fallback_member_name@Compiler@spirv_cross@@UEBA?BV?$basic_string@DU?$char_traits@D@std@@V?$allocator@D@2@@std@@I@Z
	?get_or_add_implicit_producer@?$ConcurrentQueue@UContextResourceRecoveryInfo@Internal@LoFi@@UConcurrentQueueDefaultTraits@moodycamel@@@moodycamel@@AEAAPEAUImplicitProducer@12@XZ
	?has_env@tf@@YA_NAEBV?$basic_string@DU?$char_traits@D@std@@V?$allocator@D@2@@std@@@Z
	?imbue@?$basic_filebuf@DU?$char_traits@D@std@@@std@@MEAAXAEBVlocale@2@@Z
	?implicit_producer_thread_exited_callback@?$ConcurrentQueue@UContextResourceRecoveryInfo@Internal@LoFi@@UConcurrentQueueDefaultTraits@moodycamel@@@moodycamel@@CAXPEAX@Z
	?isQueueFamily0SupportAllQueue@PhysicalDevice@@QEBA_NXZ
	?message@_Future_error_category2@std@@UEBA?AV?$basic_string@DU?$char_traits@D@std@@V?$allocator@D@2@@2@H@Z
	?message@_Generic_error_category@std@@UEBA?AV?$basic_string@DU?$char_traits@D@std@@V?$allocator@D@2@@2@H@Z
	?name@_Future_error_category2@std@@UEBAPEBDXZ
	?name@_Generic_error_category@std@@UEBAPEBDXZ
	?new_block_index@ImplicitProducer@?$ConcurrentQueue@UContextResourceRecoveryInfo@Internal@LoFi@@UConcurrentQueueDefaultTraits@moodycamel@@@moodycamel@@AEAA_NXZ
	?notify_n@NonblockingNotifierV2@tf@@QEAAX_K@Z
	?notify_one@NonblockingNotifierV2@tf@@QEAAXXZ
	?on_entry@TFProfObserver@tf@@EEAAXVWorkerView@2@VTaskView@2@@Z
	?on_exit@TFProfObserver@tf@@EEAAXVWorkerView@2@VTaskView@2@@Z
	?open@?$basic_filebuf@DU?$char_traits@D@std@@@std@@QEAAPEAV12@PEBDHH@Z
	?overflow@?$basic_filebuf@DU?$char_traits@D@std@@@std@@MEAAHH@Z
	?overflow@?$basic_stringbuf@DU?$char_traits@D@std@@V?$allocator@D@2@@std@@MEAAHH@Z
	?pbackfail@?$basic_filebuf@DU?$char_traits@D@std@@@std@@MEAAHH@Z
	?pbackfail@?$basic_stringbuf@DU?$char_traits@D@std@@V?$allocator@D@2@@std@@MEAAHH@Z
	?pop@?$TaskQueue@PEAVNode@tf@@$02@tf@@QEAAPEAVNode@2@XZ
	?pop@?$basic_sigh_mixin@V?$basic_storage@UTagDataChanged@Gfx@Component@LoFi@@W4entity@entt@@V?$allocator@UTagDataChanged@Gfx@Component@LoFi@@@std@@X@entt@@V?$basic_registry@W4entity@entt@@V?$allocator@W4entity@entt@@@std@@@2@@entt@@EEAAXU?$sparse_set_iterator@V?$vector@W4entity@entt@@V?$allocator@W4entity@entt@@@std@@@std@@@internal@2@0@Z
	?pop@?$basic_sigh_mixin@V?$basic_storage@UTagDataUpdateCompleted@Gfx@Component@LoFi@@W4entity@entt@@V?$allocator@UTagDataUpdateCompleted@Gfx@Component@LoFi@@@std@@X@entt@@V?$basic_registry@W4entity@entt@@V?$allocator@W4entity@entt@@@std@@@2@@entt@@EEAAXU?$sparse_set_iterator@V?$vector@W4entity@entt@@V?$allocator@W4entity@entt@@@std@@@std@@@internal@2@0@Z
	?pop@?$basic_sigh_mixin@V?$basic_storage@VBuffer3F@Gfx@Component@LoFi@@W4entity@entt@@V?$allocator@VBuffer3F@Gfx@Component@LoFi@@@std@@X@entt@@V?$basic_registry@W4entity@entt@@V?$allocator@W4entity@entt@@@std@@@2@@entt@@EEAAXU?$sparse_set_iterator@V?$vector@W4entity@entt@@V?$allocator@W4entity@entt@@@std@@@std@@@internal@2@0@Z
	?pop@?$basic_sigh_mixin@V?$basic_storage@VBuffer@Gfx@Component@LoFi@@W4entity@entt@@V?$allocator@VBuffer@Gfx@Component@LoFi@@@std@@X@entt@@V?$basic_registry@W4entity@entt@@V?$allocator@W4entity@entt@@@std@@@2@@entt@@EEAAXU?$sparse_set_iterator@V?$vector@W4entity@entt@@V?$allocator@W4entity@entt@@@std@@@std@@@internal@2@0@Z
	?pop@?$basic_sigh_mixin@V?$basic_storage@VKernel@Gfx@Component@LoFi@@W4entity@entt@@V?$allocator@VKernel@Gfx@Component@LoFi@@@std@@X@entt@@V?$basic_registry@W4entity@entt@@V?$allocator@W4entity@entt@@@std@@@2@@entt@@EEAAXU?$sparse_set_iterator@V?$vector@W4entity@entt@@V?$allocator@W4entity@entt@@@std@@@std@@@internal@2@0@Z
	?pop@?$basic_sigh_mixin@V?$basic_storage@VProgram@Gfx@Component@LoFi@@W4entity@entt@@V?$allocator@VProgram@Gfx@Component@LoFi@@@std@@X@entt@@V?$basic_registry@W4entity@entt@@V?$allocator@W4entity@entt@@@std@@@2@@entt@@EEAAXU?$sparse_set_iterator@V?$vector@W4entity@entt@@V?$allocator@W4entity@entt@@@std@@@std@@@internal@2@0@Z
	?pop@?$basic_sigh_mixin@V?$basic_storage@VSwapchain@Gfx@Component@LoFi@@W4entity@entt@@V?$allocator@VSwapchain@Gfx@Component@LoFi@@@std@@X@entt@@V?$basic_registry@W4entity@entt@@V?$allocator@W4entity@entt@@@std@@@2@@entt@@EEAAXU?$sparse_set_iterator@V?$vector@W4entity@entt@@V?$allocator@W4entity@entt@@@std@@@std@@@internal@2@0@Z
	?pop@?$basic_sigh_mixin@V?$basic_storage@VTexture@Gfx@Component@LoFi@@W4entity@entt@@V?$allocator@VTexture@Gfx@Component@LoFi@@@std@@X@entt@@V?$basic_registry@W4entity@entt@@V?$allocator@W4entity@entt@@@std@@@2@@entt@@EEAAXU?$sparse_set_iterator@V?$vector@W4entity@entt@@V?$allocator@W4entity@entt@@@std@@@std@@@internal@2@0@Z
	?pop@?$basic_sigh_mixin@V?$basic_storage@VWindow@Gfx@Component@LoFi@@W4entity@entt@@V?$allocator@VWindow@Gfx@Component@LoFi@@@std@@X@entt@@V?$basic_registry@W4entity@entt@@V?$allocator@W4entity@entt@@@std@@@2@@entt@@EEAAXU?$sparse_set_iterator@V?$vector@W4entity@entt@@V?$allocator@W4entity@entt@@@std@@@std@@@internal@2@0@Z
	?pop@?$basic_sigh_mixin@V?$basic_storage@W4entity@entt@@W412@V?$allocator@W4entity@entt@@@std@@X@entt@@V?$basic_registry@W4entity@entt@@V?$allocator@W4entity@entt@@@std@@@2@@entt@@EEAAXU?$sparse_set_iterator@V?$vector@W4entity@entt@@V?$allocator@W4entity@entt@@@std@@@std@@@internal@2@0@Z
	?pop@?$basic_sparse_set@W4entity@entt@@V?$allocator@W4entity@entt@@@std@@@entt@@MEAAXU?$sparse_set_iterator@V?$vector@W4entity@entt@@V?$allocator@W4entity@entt@@@std@@@std@@@internal@2@0@Z
	?pop@?$basic_storage@VBuffer3F@Gfx@Component@LoFi@@W4entity@entt@@V?$allocator@VBuffer3F@Gfx@Component@LoFi@@@std@@X@entt@@MEAAXU?$sparse_set_iterator@V?$vector@W4entity@entt@@V?$allocator@W4entity@entt@@@std@@@std@@@internal@2@0@Z
	?pop@?$basic_storage@VBuffer@Gfx@Component@LoFi@@W4entity@entt@@V?$allocator@VBuffer@Gfx@Component@LoFi@@@std@@X@entt@@MEAAXU?$sparse_set_iterator@V?$vector@W4entity@entt@@V?$allocator@W4entity@entt@@@std@@@std@@@internal@2@0@Z
	?pop@?$basic_storage@VKernel@Gfx@Component@LoFi@@W4entity@entt@@V?$allocator@VKernel@Gfx@Component@LoFi@@@std@@X@entt@@MEAAXU?$sparse_set_iterator@V?$vector@W4entity@entt@@V?$allocator@W4entity@entt@@@std@@@std@@@internal@2@0@Z
	?pop@?$basic_storage@VProgram@Gfx@Component@LoFi@@W4entity@entt@@V?$allocator@VProgram@Gfx@Component@LoFi@@@std@@X@entt@@MEAAXU?$sparse_set_iterator@V?$vector@W4entity@entt@@V?$allocator@W4entity@entt@@@std@@@std@@@internal@2@0@Z
	?pop@?$basic_storage@VSwapchain@Gfx@Component@LoFi@@W4entity@entt@@V?$allocator@VSwapchain@Gfx@Component@LoFi@@@std@@X@entt@@MEAAXU?$sparse_set_iterator@V?$vector@W4entity@entt@@V?$allocator@W4entity@entt@@@std@@@std@@@internal@2@0@Z
	?pop@?$basic_storage@VTexture@Gfx@Component@LoFi@@W4entity@entt@@V?$allocator@VTexture@Gfx@Component@LoFi@@@std@@X@entt@@MEAAXU?$sparse_set_iterator@V?$vector@W4entity@entt@@V?$allocator@W4entity@entt@@@std@@@std@@@internal@2@0@Z
	?pop@?$basic_storage@VWindow@Gfx@Component@LoFi@@W4entity@entt@@V?$allocator@VWindow@Gfx@Component@LoFi@@@std@@X@entt@@MEAAXU?$sparse_set_iterator@V?$vector@W4entity@entt@@V?$allocator@W4entity@entt@@@std@@@std@@@internal@2@0@Z
	?pop_all@?$basic_sigh_mixin@V?$basic_storage@UTagDataChanged@Gfx@Component@LoFi@@W4entity@entt@@V?$allocator@UTagDataChanged@Gfx@Component@LoFi@@@std@@X@entt@@V?$basic_registry@W4entity@entt@@V?$allocator@W4entity@entt@@@std@@@2@@entt@@EEAAXXZ
	?pop_all@?$basic_sigh_mixin@V?$basic_storage@UTagDataUpdateCompleted@Gfx@Component@LoFi@@W4entity@entt@@V?$allocator@UTagDataUpdateCompleted@Gfx@Component@LoFi@@@std@@X@entt@@V?$basic_registry@W4entity@entt@@V?$allocator@W4entity@entt@@@std@@@2@@entt@@EEAAXXZ
	?pop_all@?$basic_sigh_mixin@V?$basic_storage@VBuffer3F@Gfx@Component@LoFi@@W4entity@entt@@V?$allocator@VBuffer3F@Gfx@Component@LoFi@@@std@@X@entt@@V?$basic_registry@W4entity@entt@@V?$allocator@W4entity@entt@@@std@@@2@@entt@@EEAAXXZ
	?pop_all@?$basic_sigh_mixin@V?$basic_storage@VBuffer@Gfx@Component@LoFi@@W4entity@entt@@V?$allocator@VBuffer@Gfx@Component@LoFi@@@std@@X@entt@@V?$basic_registry@W4entity@entt@@V?$allocator@W4entity@entt@@@std@@@2@@entt@@EEAAXXZ
	?pop_all@?$basic_sigh_mixin@V?$basic_storage@VKernel@Gfx@Component@LoFi@@W4entity@entt@@V?$allocator@VKernel@Gfx@Component@LoFi@@@std@@X@entt@@V?$basic_registry@W4entity@entt@@V?$allocator@W4entity@entt@@@std@@@2@@entt@@EEAAXXZ
	?pop_all@?$basic_sigh_mixin@V?$basic_storage@VProgram@Gfx@Component@LoFi@@W4entity@entt@@V?$allocator@VProgram@Gfx@Component@LoFi@@@std@@X@entt@@V?$basic_registry@W4entity@entt@@V?$allocator@W4entity@entt@@@std@@@2@@entt@@EEAAXXZ
	?pop_all@?$basic_sigh_mixin@V?$basic_storage@VSwapchain@Gfx@Component@LoFi@@W4entity@entt@@V?$allocator@VSwapchain@Gfx@Component@LoFi@@@std@@X@entt@@V?$basic_registry@W4entity@entt@@V?$allocator@W4entity@entt@@@std@@@2@@entt@@EEAAXXZ
	?pop_all@?$basic_sigh_mixin@V?$basic_storage@VTexture@Gfx@Component@LoFi@@W4entity@entt@@V?$allocator@VTexture@Gfx@Component@LoFi@@@std@@X@entt@@V?$basic_registry@W4entity@entt@@V?$allocator@W4entity@entt@@@std@@@2@@entt@@EEAAXXZ
	?pop_all@?$basic_sigh_mixin@V?$basic_storage@VWindow@Gfx@Component@LoFi@@W4entity@entt@@V?$allocator@VWindow@Gfx@Component@LoFi@@@std@@X@entt@@V?$basic_registry@W4entity@entt@@V?$allocator@W4entity@entt@@@std@@@2@@entt@@EEAAXXZ
	?pop_all@?$basic_sigh_mixin@V?$basic_storage@W4entity@entt@@W412@V?$allocator@W4entity@entt@@@std@@X@entt@@V?$basic_registry@W4entity@entt@@V?$allocator@W4entity@entt@@@std@@@2@@entt@@EEAAXXZ
	?pop_all@?$basic_sparse_set@W4entity@entt@@V?$allocator@W4entity@entt@@@std@@@entt@@MEAAXXZ
	?pop_all@?$basic_storage@VBuffer3F@Gfx@Component@LoFi@@W4entity@entt@@V?$allocator@VBuffer3F@Gfx@Component@LoFi@@@std@@X@entt@@MEAAXXZ
	?pop_all@?$basic_storage@VBuffer@Gfx@Component@LoFi@@W4entity@entt@@V?$allocator@VBuffer@Gfx@Component@LoFi@@@std@@X@entt@@MEAAXXZ
	?pop_all@?$basic_storage@VKernel@Gfx@Component@LoFi@@W4entity@entt@@V?$allocator@VKernel@Gfx@Component@LoFi@@@std@@X@entt@@MEAAXXZ
	?pop_all@?$basic_storage@VProgram@Gfx@Component@LoFi@@W4entity@entt@@V?$allocator@VProgram@Gfx@Component@LoFi@@@std@@X@entt@@MEAAXXZ
	?pop_all@?$basic_storage@VSwapchain@Gfx@Component@LoFi@@W4entity@entt@@V?$allocator@VSwapchain@Gfx@Component@LoFi@@@std@@X@entt@@MEAAXXZ
	?pop_all@?$basic_storage@VTexture@Gfx@Component@LoFi@@W4entity@entt@@V?$allocator@VTexture@Gfx@Component@LoFi@@@std@@X@entt@@MEAAXXZ
	?pop_all@?$basic_storage@VWindow@Gfx@Component@LoFi@@W4entity@entt@@V?$allocator@VWindow@Gfx@Component@LoFi@@@std@@X@entt@@MEAAXXZ
	?pop_all@?$basic_storage@W4entity@entt@@W412@V?$allocator@W4entity@entt@@@std@@X@entt@@MEAAXXZ
	?push_back@?$vector@W4VkFormat@@V?$allocator@W4VkFormat@@@std@@@std@@QEAAXAEBW4VkFormat@@@Z
	?rebind@?$basic_registry@W4entity@entt@@V?$allocator@W4entity@entt@@@std@@@entt@@AEAAXXZ
	?rehash@?$dense_map@IV?$basic_any@$0A@$07@entt@@Uidentity@2@U?$equal_to@I@std@@V?$allocator@U?$pair@$$CBIV?$basic_any@$0A@$07@entt@@@std@@@5@@entt@@QEAAX_K@Z
	?rehash@?$dense_map@IV?$shared_ptr@Ugroup_descriptor@internal@entt@@@std@@Uidentity@entt@@U?$equal_to@I@2@V?$allocator@U?$pair@$$CBIV?$shared_ptr@Ugroup_descriptor@internal@entt@@@std@@@std@@@2@@entt@@QEAAX_K@Z
	?rehash@?$dense_map@IV?$shared_ptr@V?$basic_sparse_set@W4entity@entt@@V?$allocator@W4entity@entt@@@std@@@entt@@@std@@Uidentity@entt@@U?$equal_to@I@2@V?$allocator@U?$pair@$$CBIV?$shared_ptr@V?$basic_sparse_set@W4entity@entt@@V?$allocator@W4entity@entt@@@std@@@entt@@@std@@@std@@@2@@entt@@QEAAX_K@Z
	?rehash@?$dense_map@IW4VkVertexInputRate@@U?$hash@I@std@@U?$equal_to@I@3@V?$allocator@U?$pair@$$CBIW4VkVertexInputRate@@@std@@@3@@entt@@QEAAX_K@Z
	?rehash@?$dense_map@IW4entity@entt@@U?$hash@I@std@@U?$equal_to@I@4@V?$allocator@U?$pair@$$CBIW4entity@entt@@@std@@@4@@entt@@QEAAX_K@Z
	?rehash@?$dense_map@UVkSamplerCreateInfo@@PEAUVkSampler_T@@USamplerCIHash@GfxContext@LoFi@@USamplerCIEqual@45@V?$allocator@U?$pair@$$CBUVkSamplerCreateInfo@@PEAUVkSampler_T@@@std@@@std@@@entt@@QEAAX_K@Z
	?rehash@?$dense_map@V?$basic_string@DU?$char_traits@D@std@@V?$allocator@D@2@@std@@UPushConstantMemberInfo@Gfx@Component@LoFi@@U?$hash@V?$basic_string@DU?$char_traits@D@std@@V?$allocator@D@2@@std@@@2@U?$equal_to@V?$basic_string@DU?$char_traits@D@std@@V?$allocator@D@2@@std@@@2@V?$allocator@U?$pair@$$CBV?$basic_string@DU?$char_traits@D@std@@V?$allocator@D@2@@std@@UPushConstantMemberInfo@Gfx@Component@LoFi@@@std@@@2@@entt@@QEAAX_K@Z
	?rehash@?$dense_map@W4glslang_stage_t@@U?$pair@V?$vector@IV?$allocator@I@std@@@std@@PEAUVkShaderModule_T@@@std@@U?$hash@W4glslang_stage_t@@@3@U?$equal_to@W4glslang_stage_t@@@3@V?$allocator@U?$pair@$$CBW4glslang_stage_t@@U?$pair@V?$vector@IV?$allocator@I@std@@@std@@PEAUVkShaderModule_T@@@std@@@std@@@3@@entt@@QEAAX_K@Z
	?rehash@?$dense_map@W4glslang_stage_t@@V?$basic_string_view@DU?$char_traits@D@std@@@std@@U?$hash@W4glslang_stage_t@@@3@U?$equal_to@W4glslang_stage_t@@@3@V?$allocator@U?$pair@$$CBW4glslang_stage_t@@V?$basic_string_view@DU?$char_traits@D@std@@@std@@@std@@@3@@entt@@QEAAX_K@Z
	?rehash@?$dense_map@_WUFontUV@LoFi@@U?$hash@_W@std@@U?$equal_to@_W@4@V?$allocator@U?$pair@$$CB_WUFontUV@LoFi@@@std@@@4@@entt@@QEAAX_K@Z
	?rehash@?$dense_set@W4entity@entt@@U?$hash@W4entity@entt@@@std@@U?$equal_to@W4entity@entt@@@4@V?$allocator@W4entity@entt@@@4@@entt@@QEAAX_K@Z
	?replace@?$basic_string@DU?$char_traits@D@std@@V?$allocator@D@2@@std@@QEAAAEAV12@_K_KQEBD0@Z
	?reserve@?$SmallVector@UBuffer@?$StringStream@$0BAAA@$0BAAA@@spirv_cross@@$07@spirv_cross@@QEAAX_K@Z
	?reserve@?$basic_sparse_set@W4entity@entt@@V?$allocator@W4entity@entt@@@std@@@entt@@UEAAX_K@Z
	?reserve@?$basic_storage@VBuffer3F@Gfx@Component@LoFi@@W4entity@entt@@V?$allocator@VBuffer3F@Gfx@Component@LoFi@@@std@@X@entt@@UEAAX_K@Z
	?reserve@?$basic_storage@VBuffer@Gfx@Component@LoFi@@W4entity@entt@@V?$allocator@VBuffer@Gfx@Component@LoFi@@@std@@X@entt@@UEAAX_K@Z
	?reserve@?$basic_storage@VKernel@Gfx@Component@LoFi@@W4entity@entt@@V?$allocator@VKernel@Gfx@Component@LoFi@@@std@@X@entt@@UEAAX_K@Z
	?reserve@?$basic_storage@VProgram@Gfx@Component@LoFi@@W4entity@entt@@V?$allocator@VProgram@Gfx@Component@LoFi@@@std@@X@entt@@UEAAX_K@Z
	?reserve@?$basic_storage@VSwapchain@Gfx@Component@LoFi@@W4entity@entt@@V?$allocator@VSwapchain@Gfx@Component@LoFi@@@std@@X@entt@@UEAAX_K@Z
	?reserve@?$basic_storage@VTexture@Gfx@Component@LoFi@@W4entity@entt@@V?$allocator@VTexture@Gfx@Component@LoFi@@@std@@X@entt@@UEAAX_K@Z
	?reserve@?$basic_storage@VWindow@Gfx@Component@LoFi@@W4entity@entt@@V?$allocator@VWindow@Gfx@Component@LoFi@@@std@@X@entt@@UEAAX_K@Z
	?resize@?$VmaVector@DU?$VmaStlAllocator@D@@@@QEAAX_K@Z
	?resize@?$VmaVector@PEAVVmaDeviceMemoryBlock@@U?$VmaStlAllocator@PEAVVmaDeviceMemoryBlock@@@@@@QEAAX_K@Z
	?resize@?$VmaVector@UItemBlock@?$VmaPoolAllocator@UVmaAllocation_T@@@@U?$VmaStlAllocator@UItemBlock@?$VmaPoolAllocator@UVmaAllocation_T@@@@@@@@QEAAX_K@Z
	?resize@?$VmaVector@UItemBlock@?$VmaPoolAllocator@VBlock@VmaBlockMetadata_TLSF@@@@U?$VmaStlAllocator@UItemBlock@?$VmaPoolAllocator@VBlock@VmaBlockMetadata_TLSF@@@@@@@@QEAAX_K@Z
	?resize@?$VmaVector@UStackItem@VmaJsonWriter@@U?$VmaStlAllocator@UStackItem@VmaJsonWriter@@@@@@QEAAX_K@Z
	?resize@?$VmaVector@UVmaDefragmentationMove@@U?$VmaStlAllocator@UVmaDefragmentationMove@@@@@@QEAAX_K@Z
	?resize@?$VmaVector@UVmaSuballocation@@U?$VmaStlAllocator@UVmaSuballocation@@@@@@QEAAX_K@Z
	?resize@?$vector@PEAVBuffer3F@Gfx@Component@LoFi@@V?$allocator@PEAVBuffer3F@Gfx@Component@LoFi@@@std@@@std@@QEAAX_K@Z
	?resize@?$vector@PEAVBuffer@Gfx@Component@LoFi@@V?$allocator@PEAVBuffer@Gfx@Component@LoFi@@@std@@@std@@QEAAX_K@Z
	?resize@?$vector@PEAVKernel@Gfx@Component@LoFi@@V?$allocator@PEAVKernel@Gfx@Component@LoFi@@@std@@@std@@QEAAX_K@Z
	?resize@?$vector@PEAVProgram@Gfx@Component@LoFi@@V?$allocator@PEAVProgram@Gfx@Component@LoFi@@@std@@@std@@QEAAX_K@Z
	?resize@?$vector@PEAVSwapchain@Gfx@Component@LoFi@@V?$allocator@PEAVSwapchain@Gfx@Component@LoFi@@@std@@@std@@QEAAX_K@Z
	?resize@?$vector@PEAVTexture@Gfx@Component@LoFi@@V?$allocator@PEAVTexture@Gfx@Component@LoFi@@@std@@@std@@QEAAX_K@Z
	?resize@?$vector@PEAVWindow@Gfx@Component@LoFi@@V?$allocator@PEAVWindow@Gfx@Component@LoFi@@@std@@@std@@QEAAX_K@Z
	?resize_array@?$TaskQueue@PEAVNode@tf@@$02@tf@@AEAAPEAUArray@12@PEAU312@I_J1@Z
	?rethrow_exception@std@@YAXVexception_ptr@1@@Z
	?schedule@_DefaultPPLTaskScheduler@details@Concurrency@@UEAAXP6AXPEAX@Z0@Z
	?seekoff@?$basic_filebuf@DU?$char_traits@D@std@@@std@@MEAA?AV?$fpos@U_Mbstatet@@@2@_JHH@Z
	?seekoff@?$basic_stringbuf@DU?$char_traits@D@std@@V?$allocator@D@2@@std@@MEAA?AV?$fpos@U_Mbstatet@@@2@_JHH@Z
	?seekpos@?$basic_filebuf@DU?$char_traits@D@std@@@std@@MEAA?AV?$fpos@U_Mbstatet@@@2@V32@H@Z
	?seekpos@?$basic_stringbuf@DU?$char_traits@D@std@@V?$allocator@D@2@@std@@MEAA?AV?$fpos@U_Mbstatet@@@2@V32@H@Z
	?set_exception@?$promise@X@std@@QEAAXVexception_ptr@2@@Z
	?set_up@TFProfObserver@tf@@EEAAX_K@Z
	?setbuf@?$basic_filebuf@DU?$char_traits@D@std@@@std@@MEAAPEAV?$basic_streambuf@DU?$char_traits@D@std@@@2@PEAD_J@Z
	?shrink_to_fit@?$basic_sparse_set@W4entity@entt@@V?$allocator@W4entity@entt@@@std@@@entt@@UEAAXXZ
	?shrink_to_fit@?$basic_storage@VBuffer3F@Gfx@Component@LoFi@@W4entity@entt@@V?$allocator@VBuffer3F@Gfx@Component@LoFi@@@std@@X@entt@@UEAAXXZ
	?shrink_to_fit@?$basic_storage@VBuffer@Gfx@Component@LoFi@@W4entity@entt@@V?$allocator@VBuffer@Gfx@Component@LoFi@@@std@@X@entt@@UEAAXXZ
	?shrink_to_fit@?$basic_storage@VKernel@Gfx@Component@LoFi@@W4entity@entt@@V?$allocator@VKernel@Gfx@Component@LoFi@@@std@@X@entt@@UEAAXXZ
	?shrink_to_fit@?$basic_storage@VProgram@Gfx@Component@LoFi@@W4entity@entt@@V?$allocator@VProgram@Gfx@Component@LoFi@@@std@@X@entt@@UEAAXXZ
	?shrink_to_fit@?$basic_storage@VSwapchain@Gfx@Component@LoFi@@W4entity@entt@@V?$allocator@VSwapchain@Gfx@Component@LoFi@@@std@@X@entt@@UEAAXXZ
	?shrink_to_fit@?$basic_storage@VTexture@Gfx@Component@LoFi@@W4entity@entt@@V?$allocator@VTexture@Gfx@Component@LoFi@@@std@@X@entt@@UEAAXXZ
	?shrink_to_fit@?$basic_storage@VWindow@Gfx@Component@LoFi@@W4entity@entt@@V?$allocator@VWindow@Gfx@Component@LoFi@@@std@@X@entt@@UEAAXXZ
	?shrink_to_size@?$basic_storage@VBuffer3F@Gfx@Component@LoFi@@W4entity@entt@@V?$allocator@VBuffer3F@Gfx@Component@LoFi@@@std@@X@entt@@AEAAX_K@Z
	?shrink_to_size@?$basic_storage@VBuffer@Gfx@Component@LoFi@@W4entity@entt@@V?$allocator@VBuffer@Gfx@Component@LoFi@@@std@@X@entt@@AEAAX_K@Z
	?shrink_to_size@?$basic_storage@VKernel@Gfx@Component@LoFi@@W4entity@entt@@V?$allocator@VKernel@Gfx@Component@LoFi@@@std@@X@entt@@AEAAX_K@Z
	?shrink_to_size@?$basic_storage@VProgram@Gfx@Component@LoFi@@W4entity@entt@@V?$allocator@VProgram@Gfx@Component@LoFi@@@std@@X@entt@@AEAAX_K@Z
	?shrink_to_size@?$basic_storage@VSwapchain@Gfx@Component@LoFi@@W4entity@entt@@V?$allocator@VSwapchain@Gfx@Component@LoFi@@@std@@X@entt@@AEAAX_K@Z
	?shrink_to_size@?$basic_storage@VTexture@Gfx@Component@LoFi@@W4entity@entt@@V?$allocator@VTexture@Gfx@Component@LoFi@@@std@@X@entt@@AEAAX_K@Z
	?shrink_to_size@?$basic_storage@VWindow@Gfx@Component@LoFi@@W4entity@entt@@V?$allocator@VWindow@Gfx@Component@LoFi@@@std@@X@entt@@AEAAX_K@Z
	?steal@?$TaskQueue@PEAVNode@tf@@$02@tf@@QEAAPEAVNode@2@XZ
	?stof@std@@YAMAEBV?$basic_string@DU?$char_traits@D@std@@V?$allocator@D@2@@1@PEA_K@Z
	?stoi@std@@YAHAEBV?$basic_string@DU?$char_traits@D@std@@V?$allocator@D@2@@1@PEA_KH@Z
	?str@?$StringStream@$0BAAA@$0BAAA@@spirv_cross@@QEBA?AV?$basic_string@DU?$char_traits@D@std@@V?$allocator@D@2@@std@@XZ
	?str@?$basic_ostringstream@DU?$char_traits@D@std@@V?$allocator@D@2@@std@@QEGBA?AV?$basic_string@DU?$char_traits@D@std@@V?$allocator@D@2@@2@XZ
	?subscribe@ThreadExitNotifier@details@moodycamel@@SAXPEAUThreadExitListener@23@@Z
	?summary@TFProfObserver@tf@@QEBAXAEAV?$basic_ostream@DU?$char_traits@D@std@@@std@@@Z
	?swap_or_move@?$basic_sparse_set@W4entity@entt@@V?$allocator@W4entity@entt@@@std@@@entt@@EEAAX_K0@Z
	?swap_or_move@?$basic_storage@VBuffer3F@Gfx@Component@LoFi@@W4entity@entt@@V?$allocator@VBuffer3F@Gfx@Component@LoFi@@@std@@X@entt@@EEAAX_K0@Z
	?swap_or_move@?$basic_storage@VBuffer@Gfx@Component@LoFi@@W4entity@entt@@V?$allocator@VBuffer@Gfx@Component@LoFi@@@std@@X@entt@@EEAAX_K0@Z
	?swap_or_move@?$basic_storage@VKernel@Gfx@Component@LoFi@@W4entity@entt@@V?$allocator@VKernel@Gfx@Component@LoFi@@@std@@X@entt@@EEAAX_K0@Z
	?swap_or_move@?$basic_storage@VProgram@Gfx@Component@LoFi@@W4entity@entt@@V?$allocator@VProgram@Gfx@Component@LoFi@@@std@@X@entt@@EEAAX_K0@Z
	?swap_or_move@?$basic_storage@VSwapchain@Gfx@Component@LoFi@@W4entity@entt@@V?$allocator@VSwapchain@Gfx@Component@LoFi@@@std@@X@entt@@EEAAX_K0@Z
	?swap_or_move@?$basic_storage@VTexture@Gfx@Component@LoFi@@W4entity@entt@@V?$allocator@VTexture@Gfx@Component@LoFi@@@std@@X@entt@@EEAAX_K0@Z
	?swap_or_move@?$basic_storage@VWindow@Gfx@Component@LoFi@@W4entity@entt@@V?$allocator@VWindow@Gfx@Component@LoFi@@@std@@X@entt@@EEAAX_K0@Z
	?sync@?$basic_filebuf@DU?$char_traits@D@std@@@std@@MEAAHXZ
	?try_emplace@?$basic_sigh_mixin@V?$basic_storage@UTagDataChanged@Gfx@Component@LoFi@@W4entity@entt@@V?$allocator@UTagDataChanged@Gfx@Component@LoFi@@@std@@X@entt@@V?$basic_registry@W4entity@entt@@V?$allocator@W4entity@entt@@@std@@@2@@entt@@EEAA?AU?$sparse_set_iterator@V?$vector@W4entity@entt@@V?$allocator@W4entity@entt@@@std@@@std@@@internal@2@W4entity@2@_NPEBX@Z
	?try_emplace@?$basic_sigh_mixin@V?$basic_storage@UTagDataUpdateCompleted@Gfx@Component@LoFi@@W4entity@entt@@V?$allocator@UTagDataUpdateCompleted@Gfx@Component@LoFi@@@std@@X@entt@@V?$basic_registry@W4entity@entt@@V?$allocator@W4entity@entt@@@std@@@2@@entt@@EEAA?AU?$sparse_set_iterator@V?$vector@W4entity@entt@@V?$allocator@W4entity@entt@@@std@@@std@@@internal@2@W4entity@2@_NPEBX@Z
	?try_emplace@?$basic_sigh_mixin@V?$basic_storage@VBuffer3F@Gfx@Component@LoFi@@W4entity@entt@@V?$allocator@VBuffer3F@Gfx@Component@LoFi@@@std@@X@entt@@V?$basic_registry@W4entity@entt@@V?$allocator@W4entity@entt@@@std@@@2@@entt@@EEAA?AU?$sparse_set_iterator@V?$vector@W4entity@entt@@V?$allocator@W4entity@entt@@@std@@@std@@@internal@2@W4entity@2@_NPEBX@Z
	?try_emplace@?$basic_sigh_mixin@V?$basic_storage@VBuffer@Gfx@Component@LoFi@@W4entity@entt@@V?$allocator@VBuffer@Gfx@Component@LoFi@@@std@@X@entt@@V?$basic_registry@W4entity@entt@@V?$allocator@W4entity@entt@@@std@@@2@@entt@@EEAA?AU?$sparse_set_iterator@V?$vector@W4entity@entt@@V?$allocator@W4entity@entt@@@std@@@std@@@internal@2@W4entity@2@_NPEBX@Z
	?try_emplace@?$basic_sigh_mixin@V?$basic_storage@VKernel@Gfx@Component@LoFi@@W4entity@entt@@V?$allocator@VKernel@Gfx@Component@LoFi@@@std@@X@entt@@V?$basic_registry@W4entity@entt@@V?$allocator@W4entity@entt@@@std@@@2@@entt@@EEAA?AU?$sparse_set_iterator@V?$vector@W4entity@entt@@V?$allocator@W4entity@entt@@@std@@@std@@@internal@2@W4entity@2@_NPEBX@Z
	?try_emplace@?$basic_sigh_mixin@V?$basic_storage@VProgram@Gfx@Component@LoFi@@W4entity@entt@@V?$allocator@VProgram@Gfx@Component@LoFi@@@std@@X@entt@@V?$basic_registry@W4entity@entt@@V?$allocator@W4entity@entt@@@std@@@2@@entt@@EEAA?AU?$sparse_set_iterator@V?$vector@W4entity@entt@@V?$allocator@W4entity@entt@@@std@@@std@@@internal@2@W4entity@2@_NPEBX@Z
	?try_emplace@?$basic_sigh_mixin@V?$basic_storage@VSwapchain@Gfx@Component@LoFi@@W4entity@entt@@V?$allocator@VSwapchain@Gfx@Component@LoFi@@@std@@X@entt@@V?$basic_registry@W4entity@entt@@V?$allocator@W4entity@entt@@@std@@@2@@entt@@EEAA?AU?$sparse_set_iterator@V?$vector@W4entity@entt@@V?$allocator@W4entity@entt@@@std@@@std@@@internal@2@W4entity@2@_NPEBX@Z
	?try_emplace@?$basic_sigh_mixin@V?$basic_storage@VTexture@Gfx@Component@LoFi@@W4entity@entt@@V?$allocator@VTexture@Gfx@Component@LoFi@@@std@@X@entt@@V?$basic_registry@W4entity@entt@@V?$allocator@W4entity@entt@@@std@@@2@@entt@@EEAA?AU?$sparse_set_iterator@V?$vector@W4entity@entt@@V?$allocator@W4entity@entt@@@std@@@std@@@internal@2@W4entity@2@_NPEBX@Z
	?try_emplace@?$basic_sigh_mixin@V?$basic_storage@VWindow@Gfx@Component@LoFi@@W4entity@entt@@V?$allocator@VWindow@Gfx@Component@LoFi@@@std@@X@entt@@V?$basic_registry@W4entity@entt@@V?$allocator@W4entity@entt@@@std@@@2@@entt@@EEAA?AU?$sparse_set_iterator@V?$vector@W4entity@entt@@V?$allocator@W4entity@entt@@@std@@@std@@@internal@2@W4entity@2@_NPEBX@Z
	?try_emplace@?$basic_sigh_mixin@V?$basic_storage@W4entity@entt@@W412@V?$allocator@W4entity@entt@@@std@@X@entt@@V?$basic_registry@W4entity@entt@@V?$allocator@W4entity@entt@@@std@@@2@@entt@@EEAA?AU?$sparse_set_iterator@V?$vector@W4entity@entt@@V?$allocator@W4entity@entt@@@std@@@std@@@internal@2@W4entity@2@_NPEBX@Z
	?try_emplace@?$basic_sparse_set@W4entity@entt@@V?$allocator@W4entity@entt@@@std@@@entt@@MEAA?AU?$sparse_set_iterator@V?$vector@W4entity@entt@@V?$allocator@W4entity@entt@@@std@@@std@@@internal@2@W4entity@2@_NPEBX@Z
	?try_emplace@?$basic_storage@VBuffer3F@Gfx@Component@LoFi@@W4entity@entt@@V?$allocator@VBuffer3F@Gfx@Component@LoFi@@@std@@X@entt@@MEAA?AU?$sparse_set_iterator@V?$vector@W4entity@entt@@V?$allocator@W4entity@entt@@@std@@@std@@@internal@2@W4entity@2@_NPEBX@Z
	?try_emplace@?$basic_storage@VBuffer@Gfx@Component@LoFi@@W4entity@entt@@V?$allocator@VBuffer@Gfx@Component@LoFi@@@std@@X@entt@@MEAA?AU?$sparse_set_iterator@V?$vector@W4entity@entt@@V?$allocator@W4entity@entt@@@std@@@std@@@internal@2@W4entity@2@_NPEBX@Z
	?try_emplace@?$basic_storage@VKernel@Gfx@Component@LoFi@@W4entity@entt@@V?$allocator@VKernel@Gfx@Component@LoFi@@@std@@X@entt@@MEAA?AU?$sparse_set_iterator@V?$vector@W4entity@entt@@V?$allocator@W4entity@entt@@@std@@@std@@@internal@2@W4entity@2@_NPEBX@Z
	?try_emplace@?$basic_storage@VProgram@Gfx@Component@LoFi@@W4entity@entt@@V?$allocator@VProgram@Gfx@Component@LoFi@@@std@@X@entt@@MEAA?AU?$sparse_set_iterator@V?$vector@W4entity@entt@@V?$allocator@W4entity@entt@@@std@@@std@@@internal@2@W4entity@2@_NPEBX@Z
	?try_emplace@?$basic_storage@VSwapchain@Gfx@Component@LoFi@@W4entity@entt@@V?$allocator@VSwapchain@Gfx@Component@LoFi@@@std@@X@entt@@MEAA?AU?$sparse_set_iterator@V?$vector@W4entity@entt@@V?$allocator@W4entity@entt@@@std@@@std@@@internal@2@W4entity@2@_NPEBX@Z
	?try_emplace@?$basic_storage@VTexture@Gfx@Component@LoFi@@W4entity@entt@@V?$allocator@VTexture@Gfx@Component@LoFi@@@std@@X@entt@@MEAA?AU?$sparse_set_iterator@V?$vector@W4entity@entt@@V?$allocator@W4entity@entt@@@std@@@std@@@internal@2@W4entity@2@_NPEBX@Z
	?try_emplace@?$basic_storage@VWindow@Gfx@Component@LoFi@@W4entity@entt@@V?$allocator@VWindow@Gfx@Component@LoFi@@@std@@X@entt@@MEAA?AU?$sparse_set_iterator@V?$vector@W4entity@entt@@V?$allocator@W4entity@entt@@@std@@@std@@@internal@2@W4entity@2@_NPEBX@Z
	?try_emplace@?$basic_storage@W4entity@entt@@W412@V?$allocator@W4entity@entt@@@std@@X@entt@@MEAA?AU?$sparse_set_iterator@V?$vector@W4entity@entt@@V?$allocator@W4entity@entt@@@std@@@std@@@internal@2@W4entity@2@_NPEBX@Z
	?uflow@?$basic_filebuf@DU?$char_traits@D@std@@@std@@MEAAHXZ
	?underflow@?$basic_filebuf@DU?$char_traits@D@std@@@std@@MEAAHXZ
	?underflow@?$basic_stringbuf@DU?$char_traits@D@std@@V?$allocator@D@2@@std@@MEAAHXZ
	?unsubscribe@ThreadExitNotifier@details@moodycamel@@SAXPEAUThreadExitListener@23@@Z
	?volkGetLoadedEcsWorld@Internal@LoFi@@YAPEAV?$basic_registry@W4entity@entt@@V?$allocator@W4entity@entt@@@std@@@entt@@XZ
	?volkGetLoadedPhysicalDevice@Internal@LoFi@@YAPEAUVkPhysicalDevice_T@@XZ
	?volkGetLoadedVmaAllocator@Internal@LoFi@@YAPEAUVmaAllocator_T@@XZ
	?volkLoadEcsWorld@Internal@LoFi@@YAXPEAV?$basic_registry@W4entity@entt@@V?$allocator@W4entity@entt@@@std@@@entt@@@Z
	?volkLoadPhysicalDevice@Internal@LoFi@@YAXPEAUVkPhysicalDevice_T@@@Z
	?volkLoadVmaAllocator@Internal@LoFi@@YAXPEAUVmaAllocator_T@@@Z
	?what@bad_optional_access@std@@UEBAPEBDXZ
	?what@exception@std@@UEBAPEBDXZ
	?what@future_error@std@@UEBAPEBDXZ
	?xsgetn@?$basic_filebuf@DU?$char_traits@D@std@@@std@@MEAA_JPEAD_J@Z
	?xsputn@?$basic_filebuf@DU?$char_traits@D@std@@@std@@MEAA_JPEBD_J@Z
	GStart
	__local_stdio_printf_options
	_scprintf
	printf
	snprintf
	sprintf
	sprintf_s
	stbi_convert_iphone_png_to_rgb
	stbi_convert_iphone_png_to_rgb_thread
	stbi_failure_reason
	stbi_flip_vertically_on_write
	stbi_hdr_to_ldr_gamma
	stbi_hdr_to_ldr_scale
	stbi_image_free
	stbi_info
	stbi_info_from_callbacks
	stbi_info_from_file
	stbi_info_from_memory
	stbi_is_16_bit
	stbi_is_16_bit_from_callbacks
	stbi_is_16_bit_from_file
	stbi_is_16_bit_from_memory
	stbi_is_hdr
	stbi_is_hdr_from_callbacks
	stbi_is_hdr_from_file
	stbi_is_hdr_from_memory
	stbi_ldr_to_hdr_gamma
	stbi_ldr_to_hdr_scale
	stbi_load
	stbi_load_16
	stbi_load_16_from_callbacks
	stbi_load_16_from_memory
	stbi_load_from_callbacks
	stbi_load_from_file
	stbi_load_from_file_16
	stbi_load_from_memory
	stbi_load_gif_from_memory
	stbi_loadf
	stbi_loadf_from_callbacks
	stbi_loadf_from_file
	stbi_loadf_from_memory
	stbi_set_flip_vertically_on_load
	stbi_set_flip_vertically_on_load_thread
	stbi_set_unpremultiply_on_load
	stbi_set_unpremultiply_on_load_thread
	stbi_write_bmp
	stbi_write_bmp_to_func
	stbi_write_hdr
	stbi_write_hdr_to_func
	stbi_write_jpg
	stbi_write_jpg_to_func
	stbi_write_png
	stbi_write_png_to_func
	stbi_write_png_to_mem
	stbi_write_tga
	stbi_write_tga_to_func
	stbi_zlib_compress
	stbi_zlib_decode_buffer
	stbi_zlib_decode_malloc
	stbi_zlib_decode_malloc_guesssize
	stbi_zlib_decode_malloc_guesssize_headerflag
	stbi_zlib_decode_noheader_buffer
	stbi_zlib_decode_noheader_malloc
	vmaAllocateMemory
	vmaAllocateMemoryForBuffer
	vmaAllocateMemoryForImage
	vmaAllocateMemoryPages
	vmaBeginDefragmentation
	vmaBeginDefragmentationPass
	vmaBindBufferMemory
	vmaBindBufferMemory2
	vmaBindImageMemory
	vmaBindImageMemory2
	vmaBuildStatsString
	vmaBuildVirtualBlockStatsString
	vmaCalculatePoolStatistics
	vmaCalculateStatistics
	vmaCalculateVirtualBlockStatistics
	vmaCheckCorruption
	vmaCheckPoolCorruption
	vmaClearVirtualBlock
	vmaCopyAllocationToMemory
	vmaCopyMemoryToAllocation
	vmaCreateAliasingBuffer
	vmaCreateAliasingBuffer2
	vmaCreateAliasingImage
	vmaCreateAliasingImage2
	vmaCreateAllocator
	vmaCreateBuffer
	vmaCreateBufferWithAlignment
	vmaCreateImage
	vmaCreatePool
	vmaCreateVirtualBlock
	vmaDestroyAllocator
	vmaDestroyBuffer
	vmaDestroyImage
	vmaDestroyPool
	vmaDestroyVirtualBlock
	vmaEndDefragmentation
	vmaEndDefragmentationPass
	vmaFindMemoryTypeIndex
	vmaFindMemoryTypeIndexForBufferInfo
	vmaFindMemoryTypeIndexForImageInfo
	vmaFlushAllocation
	vmaFlushAllocations
	vmaFreeMemory
	vmaFreeMemoryPages
	vmaFreeStatsString
	vmaFreeVirtualBlockStatsString
	vmaGetAllocationInfo
	vmaGetAllocationInfo2
	vmaGetAllocationMemoryProperties
	vmaGetAllocatorInfo
	vmaGetHeapBudgets
	vmaGetMemoryProperties
	vmaGetMemoryTypeProperties
	vmaGetPhysicalDeviceProperties
	vmaGetPoolName
	vmaGetPoolStatistics
	vmaGetVirtualAllocationInfo
	vmaGetVirtualBlockStatistics
	vmaInvalidateAllocation
	vmaInvalidateAllocations
	vmaIsVirtualBlockEmpty
	vmaMapMemory
	vmaSetAllocationName
	vmaSetAllocationUserData
	vmaSetCurrentFrameIndex
	vmaSetPoolName
	vmaSetVirtualAllocationUserData
	vmaUnmapMemory
	vmaVirtualAllocate
	vmaVirtualFree
	volkFinalize
	volkGetInstanceVersion
	volkGetLoadedDevice
	volkGetLoadedInstance
	volkInitialize
	volkInitializeCustom
	volkLoadDevice
	volkLoadDeviceTable
	volkLoadInstance
	volkLoadInstanceOnly
